
DE2_115_SD_Card_Audio_Player.elf:     file format elf32-littlenios2
DE2_115_SD_Card_Audio_Player.elf
architecture: nios2:r1, flags 0x00000112:
EXEC_P, HAS_SYMS, D_PAGED
start address 0x00080240

Program Header:
    LOAD off    0x00001000 vaddr 0x00080000 paddr 0x00080000 align 2**12
         filesz 0x00000020 memsz 0x00000020 flags r-x
    LOAD off    0x00001020 vaddr 0x00080020 paddr 0x00080020 align 2**12
         filesz 0x00022fe8 memsz 0x00022fe8 flags r-x
    LOAD off    0x00024008 vaddr 0x000a3008 paddr 0x000a4de0 align 2**12
         filesz 0x00001dd8 memsz 0x00001dd8 flags rw-
    LOAD off    0x00026bb8 vaddr 0x000a6bb8 paddr 0x000a6bb8 align 2**12
         filesz 0x00000000 memsz 0x0000368c flags rw-

Sections:
Idx Name          Size      VMA       LMA       File off  Algn
  0 .entry        00000020  00080000  00080000  00001000  2**5
                  CONTENTS, ALLOC, LOAD, READONLY, CODE
  1 .exceptions   00000220  00080020  00080020  00001020  2**2
                  CONTENTS, ALLOC, LOAD, READONLY, CODE
  2 .text         00021810  00080240  00080240  00001240  2**2
                  CONTENTS, ALLOC, LOAD, READONLY, CODE
  3 .rodata       000015b8  000a1a50  000a1a50  00022a50  2**2
                  CONTENTS, ALLOC, LOAD, READONLY, DATA
  4 .rwdata       00001dd8  000a3008  000a4de0  00024008  2**2
                  CONTENTS, ALLOC, LOAD, DATA, SMALL_DATA
  5 .bss          0000368c  000a6bb8  000a6bb8  00026bb8  2**2
                  ALLOC, SMALL_DATA
  6 .onchip_memory2 00000000  000aa244  000aa244  00025de0  2**0
                  CONTENTS
  7 .av_tri_s1_cfi_flash_0 00000000  02000000  02000000  00025de0  2**0
                  CONTENTS
  8 .comment      00000023  00000000  00000000  00025de0  2**0
                  CONTENTS, READONLY
  9 .debug_aranges 00001328  00000000  00000000  00025e08  2**3
                  CONTENTS, READONLY, DEBUGGING
 10 .debug_info   00037c29  00000000  00000000  00027130  2**0
                  CONTENTS, READONLY, DEBUGGING
 11 .debug_abbrev 0000daf2  00000000  00000000  0005ed59  2**0
                  CONTENTS, READONLY, DEBUGGING
 12 .debug_line   00011f03  00000000  00000000  0006c84b  2**0
                  CONTENTS, READONLY, DEBUGGING
 13 .debug_frame  00004600  00000000  00000000  0007e750  2**2
                  CONTENTS, READONLY, DEBUGGING
 14 .debug_str    0000618e  00000000  00000000  00082d50  2**0
                  CONTENTS, READONLY, DEBUGGING
 15 .debug_loc    0001d955  00000000  00000000  00088ede  2**0
                  CONTENTS, READONLY, DEBUGGING
 16 .debug_alt_sim_info 00000060  00000000  00000000  000a6834  2**2
                  CONTENTS, READONLY, DEBUGGING
 17 .debug_ranges 00001688  00000000  00000000  000a6898  2**3
                  CONTENTS, READONLY, DEBUGGING
 18 .thread_model 00000003  00000000  00000000  000ad818  2**0
                  CONTENTS, READONLY
 19 .cpu          00000003  00000000  00000000  000ad81b  2**0
                  CONTENTS, READONLY
 20 .qsys         00000001  00000000  00000000  000ad81e  2**0
                  CONTENTS, READONLY
 21 .simulation_enabled 00000001  00000000  00000000  000ad81f  2**0
                  CONTENTS, READONLY
 22 .sysid_hash   00000004  00000000  00000000  000ad820  2**0
                  CONTENTS, READONLY
 23 .sysid_base   00000004  00000000  00000000  000ad824  2**0
                  CONTENTS, READONLY
 24 .sysid_time   00000004  00000000  00000000  000ad828  2**0
                  CONTENTS, READONLY
 25 .stderr_dev   00000009  00000000  00000000  000ad82c  2**0
                  CONTENTS, READONLY
 26 .stdin_dev    00000009  00000000  00000000  000ad835  2**0
                  CONTENTS, READONLY
 27 .stdout_dev   00000009  00000000  00000000  000ad83e  2**0
                  CONTENTS, READONLY
 28 .sopc_system_name 0000000c  00000000  00000000  000ad847  2**0
                  CONTENTS, READONLY
 29 .quartus_project_dir 0000004a  00000000  00000000  000ad853  2**0
                  CONTENTS, READONLY
 30 .jdi          00003abc  00000000  00000000  000ad89d  2**0
                  CONTENTS, READONLY
 31 .sopcinfo     000ec461  00000000  00000000  000b1359  2**0
                  CONTENTS, READONLY
SYMBOL TABLE:
00080000 l    d  .entry	00000000 .entry
00080020 l    d  .exceptions	00000000 .exceptions
00080240 l    d  .text	00000000 .text
000a1a50 l    d  .rodata	00000000 .rodata
000a3008 l    d  .rwdata	00000000 .rwdata
000a6bb8 l    d  .bss	00000000 .bss
000aa244 l    d  .onchip_memory2	00000000 .onchip_memory2
02000000 l    d  .av_tri_s1_cfi_flash_0	00000000 .av_tri_s1_cfi_flash_0
00000000 l    d  .comment	00000000 .comment
00000000 l    d  .debug_aranges	00000000 .debug_aranges
00000000 l    d  .debug_info	00000000 .debug_info
00000000 l    d  .debug_abbrev	00000000 .debug_abbrev
00000000 l    d  .debug_line	00000000 .debug_line
00000000 l    d  .debug_frame	00000000 .debug_frame
00000000 l    d  .debug_str	00000000 .debug_str
00000000 l    d  .debug_loc	00000000 .debug_loc
00000000 l    d  .debug_alt_sim_info	00000000 .debug_alt_sim_info
00000000 l    d  .debug_ranges	00000000 .debug_ranges
00000000 l    df *ABS*	00000000 ../DE2_115_SD_Card_Audio_Player_bsp//obj/HAL/src/crt0.o
00080288 l       .text	00000000 alt_after_alt_main
00000000 l    df *ABS*	00000000 alt_irq_handler.c
00000000 l    df *ABS*	00000000 alt_instruction_exception_entry.c
00000000 l    df *ABS*	00000000 main.c
000a6c30 l     O .bss	00001004 gWavePlayList
000a7c34 l     O .bss	00001004 gWavePlayList_bgm
000a8c38 l     O .bss	00001004 gWavePlayList_vocal
000a9c3c l     O .bss	00000240 gWavePlay
000a9e7c l     O .bss	00000240 gWavePlay_vocal
000a6bb8 l     O .bss	00000004 hFat
000a6bbc l     O .bss	00000004 nMute_Volume
000a6bc0 l     O .bss	00000004 counter_ch
000a6bc4 l     O .bss	00000004 bLastSwitch
000a6bc8 l     O .bss	00000004 bNextSwitch
000a6bcc l     O .bss	00000004 bMuteSwitch
000a4d84 l     O .rwdata	00000004 bPlaySwitch
000a6bd0 l     O .bss	00000004 bKaraoke
000a6bd4 l     O .bss	00000004 percent
000a6bd8 l     O .bss	00000004 score
000a6bdc l     O .bss	00000004 scorer_pointer
000a6be0 l     O .bss	00000004 scorer_counter
000a6be4 l     O .bss	00000004 scorer_counter_total
000a6be8 l     O .bss	00000004 score_total
000a6bec l     O .bss	00000004 ch_vocal_total
000a6bf0 l     O .bss	00000004 ch_mic_total
000a4d88 l     O .rwdata	00000004 bFirsTime2SetupVol.4099
000a4d8c l     O .rwdata	00000004 bFirsTime2SetupVol.4117
00000000 l    df *ABS*	00000000 FatFileSystem.c
00000000 l    df *ABS*	00000000 FatInternal.c
00000000 l    df *ABS*	00000000 AUDIO.c
000aa0bc l     O .bss	00000028 reg_file
00000000 l    df *ABS*	00000000 I2C.c
00000000 l    df *ABS*	00000000 LCD.c
000a6bf4 l     O .bss	00000004 fp
00000000 l    df *ABS*	00000000 LED.c
00000000 l    df *ABS*	00000000 SEG7.c
000a3008 l     O .rwdata	00000010 szMap
00000000 l    df *ABS*	00000000 WaveLib.c
00000000 l    df *ABS*	00000000 debug.c
00000000 l    df *ABS*	00000000 crc16.c
000a271c l     O .rodata	00000200 crc16tab
00000000 l    df *ABS*	00000000 crc7.c
000a291c l     O .rodata	00000100 crc7_syndrome_table
00000000 l    df *ABS*	00000000 sd_hal.c
00000000 l    df *ABS*	00000000 sd_lib.c
000aa0e4 l     O .bss	00000038 gSdInfo
00000000 l    df *ABS*	00000000 sd_protocol.c
00000000 l    df *ABS*	00000000 lib2-divmod.c
0008a0a8 l     F .text	0000006c udivmodsi4
00000000 l    df *ABS*	00000000 divsf3.c
00000000 l    df *ABS*	00000000 mulsf3.c
00000000 l    df *ABS*	00000000 floatunsisf.c
00000000 l    df *ABS*	00000000 divdf3.c
00000000 l    df *ABS*	00000000 extendsfdf2.c
00000000 l    df *ABS*	00000000 truncdfsf2.c
00000000 l    df *ABS*	00000000 libgcc2.c
00000000 l    df *ABS*	00000000 libgcc2.c
00000000 l    df *ABS*	00000000 fclose.c
00000000 l    df *ABS*	00000000 fflush.c
00000000 l    df *ABS*	00000000 findfp.c
0008ba9c l     F .text	00000008 __fp_lock
0008baa4 l     F .text	00000008 __fp_unlock
0008bab8 l     F .text	000001a0 __sinit.part.1
00000000 l    df *ABS*	00000000 fopen.c
00000000 l    df *ABS*	00000000 mallocr.c
00000000 l    df *ABS*	00000000 fseek.c
00000000 l    df *ABS*	00000000 fstatr.c
00000000 l    df *ABS*	00000000 fwalk.c
00000000 l    df *ABS*	00000000 fwrite.c
00000000 l    df *ABS*	00000000 impure.c
000a3018 l     O .rwdata	00000424 impure_data
00000000 l    df *ABS*	00000000 int_errno.c
00000000 l    df *ABS*	00000000 makebuf.c
00000000 l    df *ABS*	00000000 malloc.c
00000000 l    df *ABS*	00000000 mallocr.c
00000000 l    df *ABS*	00000000 memcpy.c
00000000 l    df *ABS*	00000000 memset.c
00000000 l    df *ABS*	00000000 openr.c
00000000 l    df *ABS*	00000000 printf.c
00000000 l    df *ABS*	00000000 putchar.c
00000000 l    df *ABS*	00000000 puts.c
00000000 l    df *ABS*	00000000 refill.c
0008d83c l     F .text	0000001c lflush
00000000 l    df *ABS*	00000000 sbrkr.c
00000000 l    df *ABS*	00000000 sprintf.c
00000000 l    df *ABS*	00000000 stdio.c
00000000 l    df *ABS*	00000000 strcasecmp.c
00000000 l    df *ABS*	00000000 strcmp.c
00000000 l    df *ABS*	00000000 strcpy.c
00000000 l    df *ABS*	00000000 strlen.c
00000000 l    df *ABS*	00000000 vfprintf.c
000a2b66 l     O .rodata	00000010 zeroes.4166
000a2b76 l     O .rodata	00000010 blanks.4165
00000000 l    df *ABS*	00000000 vfprintf.c
000a2b86 l     O .rodata	00000010 zeroes.4181
000a2b96 l     O .rodata	00000010 blanks.4180
00000000 l    df *ABS*	00000000 vsnprintf.c
00000000 l    df *ABS*	00000000 writer.c
00000000 l    df *ABS*	00000000 wsetup.c
00000000 l    df *ABS*	00000000 closer.c
00000000 l    df *ABS*	00000000 ctype_.c
000a2ca7 l     O .rodata	00000180 _ctype_b
00000000 l    df *ABS*	00000000 dtoa.c
00092150 l     F .text	00000200 quorem
00000000 l    df *ABS*	00000000 flags.c
00000000 l    df *ABS*	00000000 fvwrite.c
00000000 l    df *ABS*	00000000 isattyr.c
00000000 l    df *ABS*	00000000 locale.c
000a3864 l     O .rwdata	00000020 lc_ctype_charset
000a3844 l     O .rwdata	00000020 lc_message_charset
000a3884 l     O .rwdata	00000038 lconv
00000000 l    df *ABS*	00000000 lseekr.c
00000000 l    df *ABS*	00000000 memchr.c
00000000 l    df *ABS*	00000000 memmove.c
00000000 l    df *ABS*	00000000 mprec.c
000a2e44 l     O .rodata	0000000c p05.2678
00000000 l    df *ABS*	00000000 putc.c
00000000 l    df *ABS*	00000000 readr.c
00000000 l    df *ABS*	00000000 mallocr.c
00000000 l    df *ABS*	00000000 s_fpclassify.c
00000000 l    df *ABS*	00000000 vfprintf.c
000a2f68 l     O .rodata	00000010 zeroes.4110
000a2f78 l     O .rodata	00000010 blanks.4109
00000000 l    df *ABS*	00000000 vfprintf.c
00096d1c l     F .text	000000fc __sprint_r.part.0
000a2f98 l     O .rodata	00000010 blanks.4125
000a2f88 l     O .rodata	00000010 zeroes.4126
00000000 l    df *ABS*	00000000 wbuf.c
00000000 l    df *ABS*	00000000 mallocr.c
00000000 l    df *ABS*	00000000 fputwc.c
00000000 l    df *ABS*	00000000 wcrtomb.c
00000000 l    df *ABS*	00000000 wctomb_r.c
00000000 l    df *ABS*	00000000 libgcc2.c
00000000 l    df *ABS*	00000000 libgcc2.c
00000000 l    df *ABS*	00000000 adddf3.c
00000000 l    df *ABS*	00000000 eqdf2.c
00000000 l    df *ABS*	00000000 gedf2.c
00000000 l    df *ABS*	00000000 ledf2.c
00000000 l    df *ABS*	00000000 muldf3.c
00000000 l    df *ABS*	00000000 subdf3.c
00000000 l    df *ABS*	00000000 fixdfsi.c
00000000 l    df *ABS*	00000000 floatsidf.c
00000000 l    df *ABS*	00000000 floatunsidf.c
00000000 l    df *ABS*	00000000 alt_close.c
0009afe0 l     F .text	00000050 alt_get_errno
00000000 l    df *ABS*	00000000 alt_dev.c
0009b100 l     F .text	0000002c alt_dev_null_write
00000000 l    df *ABS*	00000000 alt_errno.c
00000000 l    df *ABS*	00000000 alt_fstat.c
0009b12c l     F .text	00000050 alt_get_errno
00000000 l    df *ABS*	00000000 alt_irq_register.c
00000000 l    df *ABS*	00000000 alt_irq_vars.c
00000000 l    df *ABS*	00000000 alt_isatty.c
0009b3dc l     F .text	00000050 alt_get_errno
00000000 l    df *ABS*	00000000 alt_load.c
0009b4d0 l     F .text	00000064 alt_load_section
00000000 l    df *ABS*	00000000 alt_lseek.c
0009b5b4 l     F .text	00000050 alt_get_errno
00000000 l    df *ABS*	00000000 alt_main.c
00000000 l    df *ABS*	00000000 alt_malloc_lock.c
00000000 l    df *ABS*	00000000 alt_open.c
0009b790 l     F .text	00000050 alt_get_errno
0009b7e0 l     F .text	000000cc alt_file_locked
00000000 l    df *ABS*	00000000 alt_read.c
0009ba04 l     F .text	00000050 alt_get_errno
00000000 l    df *ABS*	00000000 alt_release_fd.c
00000000 l    df *ABS*	00000000 alt_sbrk.c
000a4dc8 l     O .rwdata	00000004 heap_end
00000000 l    df *ABS*	00000000 alt_tick.c
00000000 l    df *ABS*	00000000 alt_usleep.c
00000000 l    df *ABS*	00000000 alt_write.c
0009be2c l     F .text	00000050 alt_get_errno
00000000 l    df *ABS*	00000000 alt_sys_init.c
0009bf74 l     F .text	00000038 alt_dev_reg
000a3a64 l     O .rwdata	000000dc av_tri_s1_cfi_flash_0
000a3b40 l     O .rwdata	00001060 jtag_uart
000a4ba0 l     O .rwdata	00000120 lcd
000a4cc0 l     O .rwdata	000000c4 rs232
00000000 l    df *ABS*	00000000 altera_avalon_cfi_flash.c
0009c084 l     F .text	00000038 alt_flash_device_register
00000000 l    df *ABS*	00000000 altera_avalon_cfi_flash_table.c
0009cec0 l     F .text	00000080 alt_read_16bit_query_entry
00000000 l    df *ABS*	00000000 altera_avalon_jtag_uart_fd.c
00000000 l    df *ABS*	00000000 altera_avalon_jtag_uart_init.c
0009df8c l     F .text	00000204 altera_avalon_jtag_uart_irq
0009e190 l     F .text	000000a8 altera_avalon_jtag_uart_timeout
00000000 l    df *ABS*	00000000 altera_avalon_jtag_uart_ioctl.c
00000000 l    df *ABS*	00000000 altera_avalon_jtag_uart_read.c
00000000 l    df *ABS*	00000000 altera_avalon_jtag_uart_write.c
00000000 l    df *ABS*	00000000 altera_avalon_lcd_16207.c
000a4dd4 l     O .rwdata	00000004 colstart
0009e7b0 l     F .text	000000b4 lcd_write_command
0009e864 l     F .text	000000d4 lcd_write_data
0009e938 l     F .text	000000cc lcd_clear_screen
0009ea04 l     F .text	000001e8 lcd_repaint_screen
0009ebec l     F .text	000000c8 lcd_scroll_up
0009ecb4 l     F .text	000002a0 lcd_handle_escape
0009f43c l     F .text	000000ac alt_lcd_16207_timeout
00000000 l    df *ABS*	00000000 altera_avalon_lcd_16207_fd.c
00000000 l    df *ABS*	00000000 altera_avalon_timer_sc.c
0009f680 l     F .text	00000074 alt_avalon_timer_sc_irq
00000000 l    df *ABS*	00000000 altera_avalon_uart_fd.c
00000000 l    df *ABS*	00000000 altera_avalon_uart_init.c
0009f934 l     F .text	00000098 altera_avalon_uart_irq
0009f9cc l     F .text	000000e0 altera_avalon_uart_rxirq
0009faac l     F .text	00000144 altera_avalon_uart_txirq
00000000 l    df *ABS*	00000000 altera_avalon_uart_read.c
0009fc44 l     F .text	00000050 alt_get_errno
00000000 l    df *ABS*	00000000 altera_avalon_uart_write.c
0009fe70 l     F .text	00000050 alt_get_errno
00000000 l    df *ABS*	00000000 alt_alarm_start.c
00000000 l    df *ABS*	00000000 alt_busy_sleep.c
00000000 l    df *ABS*	00000000 alt_dcache_flush.c
00000000 l    df *ABS*	00000000 alt_dcache_flush_all.c
00000000 l    df *ABS*	00000000 alt_dev_llist_insert.c
000a03bc l     F .text	00000050 alt_get_errno
00000000 l    df *ABS*	00000000 alt_do_ctors.c
00000000 l    df *ABS*	00000000 alt_do_dtors.c
00000000 l    df *ABS*	00000000 alt_find_dev.c
00000000 l    df *ABS*	00000000 alt_find_file.c
00000000 l    df *ABS*	00000000 alt_flash_dev.c
00000000 l    df *ABS*	00000000 alt_get_fd.c
00000000 l    df *ABS*	00000000 alt_icache_flush_all.c
00000000 l    df *ABS*	00000000 alt_iic.c
00000000 l    df *ABS*	00000000 alt_iic_isr_register.c
00000000 l    df *ABS*	00000000 alt_io_redirect.c
000a0b78 l     F .text	000000c0 alt_open_fd
00000000 l    df *ABS*	00000000 altera_nios2_gen2_irq.c
00000000 l    df *ABS*	00000000 altera_avalon_cfi_flash_amd.c
000a1064 l     F .text	000000cc alt_write_word_amd
000a0f48 l     F .text	0000011c alt_wait_for_command_to_complete_amd
00000000 l    df *ABS*	00000000 altera_avalon_cfi_flash_intel.c
000a1338 l     F .text	00000178 alt_unlock_block_intel
000a14b0 l     F .text	000000d4 alt_write_word_intel
00000000 l    df *ABS*	00000000 alt_icache_flush.c
00000000 l    df *ABS*	00000000 atexit.c
00000000 l    df *ABS*	00000000 exit.c
00000000 l    df *ABS*	00000000 memcmp.c
00000000 l    df *ABS*	00000000 __atexit.c
00000000 l    df *ABS*	00000000 __call_atexit.c
00000000 l    df *ABS*	00000000 alt_exit.c
000a6c2c g     O .bss	00000004 alt_instruction_exception_handler
0008d758 g     F .text	00000018 putchar
0009519c g     F .text	00000074 _mprec_log10
00086b20 g     F .text	00000124 I2C_Read
00095288 g     F .text	0000008c __any_on
00093fb4 g     F .text	00000054 _isatty_r
000a2e50 g     O .rodata	00000028 __mprec_tinytens
00087b30 g     F .text	00000060 Wave_GetWaveOffset
0009b6d8 g     F .text	00000078 alt_main
0008dd68 g     F .text	00000090 strcpy
00080558 g     F .text	00000038 led_display_count
0008d770 g     F .text	000000b8 _puts_r
0009c98c g     F .text	00000040 alt_read_query_entry_32bit
000832c0 g     F .text	0000006c Fat_FileBrowseBegin
000aa144 g     O .bss	00000100 alt_irq
000940e8 g     F .text	0000005c _lseek_r
0009c14c g     F .text	000002a8 alt_flash_cfi_write
000a4de0 g       *ABS*	00000000 __flash_rwdata_start
00082344 g     F .text	0000001c waveplay_stop
00093a78 g     F .text	00000098 __sflags
00099bac g     F .text	00000084 .hidden __eqdf2
00088984 g     F .text	00000080 SDLIB_WriteBlock512
000aa244 g       *ABS*	00000000 __alt_heap_start
00085d14 g     F .text	00000188 AUDIO_Init
0008d714 g     F .text	0000003c printf
000985c0 g     F .text	0000009c _wcrtomb_r
00089e0c g     F .text	000001a8 SD_CMD24
00085f5c g     F .text	00000078 AUDIO_AdcEnableHighPassFilter
0008dbf0 g     F .text	0000005c __sseek
0008bdec g     F .text	00000010 __sinit
000981b0 g     F .text	00000154 __swbuf_r
00094008 g     F .text	0000007c _setlocale_r
0008bc58 g     F .text	00000064 __sfmoreglue
0009b770 g     F .text	00000020 __malloc_unlock
0008332c g     F .text	0000042c Fat_FileBrowseNext
0008a1d4 g     F .text	00000450 .hidden __divsf3
0008768c g     F .text	00000130 waveGetChunkOffset
00087ea8 g     F .text	0000002c SDHAL_IsSupport4Bits
00087de8 g     F .text	00000050 crc7_byte
00084ca4 g     F .text	000000a8 fatIsValidDir
0009422c g     F .text	0000015c memmove
0008bdd4 g     F .text	00000018 _cleanup
00086808 g     F .text	000000f4 aduio_RegWrite
000869fc g     F .text	00000028 AUDIO_FifoClear
00094388 g     F .text	000000a8 _Balloc
000872d4 g     F .text	0000002c LED_AllOff
00099c30 g     F .text	000000e0 .hidden __gtdf2
000a0cb0 g     F .text	00000020 altera_nios2_gen2_irq_init
00000000  w      *UND*	00000000 __errno
000869b0 g     F .text	0000004c AUDIO_AdcFifoGetData
0009cb24 g     F .text	00000050 alt_write_flash_command_32bit_device_16bit_mode
00086eb8 g     F .text	00000130 i2c_write
00080000 g     F .entry	0000001c __reset
00088034 g     F .text	00000214 SDHAL_GetResponse
00080020 g       *ABS*	00000000 __flash_exceptions_start
000871ec g     F .text	00000080 LCD_Clear
0008c7d4 g     F .text	00000058 _fstat_r
0009c63c g     F .text	000002d4 alt_flash_program_block
000a6bf8 g     O .bss	00000004 errno
00080390 g     F .text	000000e4 update_status
0008db6c g     F .text	00000008 __seofread
00081888 g     F .text	0000025c waveplay_change_mode
00095cb4 g     F .text	00001068 ___svfiprintf_internal_r
00084688 g     F .text	00000168 fatNextCluster
000a6c1c g     O .bss	00000004 alt_argv
000acd84 g       *ABS*	00000000 _gp
0009bdfc g     F .text	00000030 usleep
000a38e4 g     O .rwdata	00000180 alt_fd_list
0008d750 g     F .text	00000008 _putchar_r
00080630 g     F .text	00000070 is_supporrted_sample_rate
000a0568 g     F .text	00000090 alt_find_dev
0008d430 g     F .text	00000138 memcpy
00087300 g     F .text	00000050 LED_Display
0008baac g     F .text	0000000c _cleanup_r
0009ae6c g     F .text	000000d0 .hidden __floatsidf
000877bc g     F .text	0000014c WAVE_IsWaveFile
000a0c38 g     F .text	00000078 alt_io_redirect
00099d10 g     F .text	000000e0 .hidden __ltdf2
000a1a50 g       *ABS*	00000000 __DTOR_END__
00083a08 g     F .text	000000b0 Fat_FileExist
0008d828 g     F .text	00000014 puts
000a1610 g     F .text	0000009c alt_exception_cause_generated_bad_addr
00080590 g     F .text	000000a0 wait_sdcard_insert
00095a78 g     F .text	00000074 __fpclassifyd
00088f84 g     F .text	00000198 SD_CMD2
000950f8 g     F .text	000000a4 __ratio
0009818c g     F .text	00000024 __vfiprintf_internal
0009e38c g     F .text	0000020c altera_avalon_jtag_uart_read
0008cc60 g     F .text	00000014 malloc
0008d6e8 g     F .text	0000002c _printf_r
0008a1c4 g     F .text	00000008 .hidden __udivsi3
0009b42c g     F .text	000000a4 isatty
000866f0 g     F .text	0000008c AUDIO_EnableByPass
000a2ea0 g     O .rodata	000000c8 __mprec_tens
00089ae4 g     F .text	00000180 SD_ACMD42
00094084 g     F .text	0000000c __locale_charset
00091f30 g     F .text	00000040 vsnprintf
000a1584 g     F .text	0000008c alt_icache_flush
00086c44 g     F .text	00000178 I2C_MultipleRead
000a6c04 g     O .bss	00000004 __malloc_top_pad
000864d0 g     F .text	00000110 AUDIO_SetLineInVol
000a4da4 g     O .rwdata	00000004 __mb_cur_max
000940b4 g     F .text	0000000c _localeconv_r
00089638 g     F .text	00000180 SD_CMD7
000804f4 g     F .text	00000034 lcd_display
00094788 g     F .text	0000003c __i2b
00093b10 g     F .text	000004a4 __sfvwrite_r
000873d8 g     F .text	00000054 SEG7_Clear
0008da00 g     F .text	00000054 _sbrk_r
000a1130 g     F .text	00000080 alt_program_intel
000897b8 g     F .text	000001a0 SD_CMD16
0008a034 g     F .text	00000074 ArrayToU32
0009547c g     F .text	0000005c _read_r
000a0304 g     F .text	00000074 alt_dcache_flush
000a4dbc g     O .rwdata	00000004 alt_max_fd
0009c910 g     F .text	0000003c alt_read_query_entry_8bit
0008578c g     F .text	000003d4 fatMount
0008b730 g     F .text	00000100 _fclose_r
000a11b0 g     F .text	00000188 alt_erase_block_intel
0008ba6c g     F .text	00000030 fflush
00086084 g     F .text	000000e0 AUDIO_DacEnableZeroCross
000a6c00 g     O .bss	00000004 __malloc_max_sbrked_mem
0008718c g     F .text	00000060 LCD_TextOut
0009b22c g     F .text	000001b0 alt_irq_register
0008b424 g     F .text	00000110 .hidden __extendsfdf2
00099310 g     F .text	0000089c .hidden __adddf3
00084d4c g     F .text	00000048 fatIsUnusedDir
00081ae4 g     F .text	00000860 waveplay_execute
00094ea0 g     F .text	0000011c __b2d
00098d80 g     F .text	00000590 .hidden __umoddi3
0009b604 g     F .text	000000d4 lseek
000a4d90 g     O .rwdata	00000004 _global_impure_ptr
000954d8 g     F .text	000005a0 _realloc_r
000aa244 g       *ABS*	00000000 __bss_end
000a0a88 g     F .text	000000f0 alt_iic_isr_register
0009bcf8 g     F .text	00000104 alt_tick
000987c0 g     F .text	000005c0 .hidden __udivdi3
000983e4 g     F .text	00000184 _fputwc_r
000a2e78 g     O .rodata	00000028 __mprec_bigtens
0009456c g     F .text	00000104 __s2b
0009af3c g     F .text	000000a4 .hidden __floatunsidf
00085ee4 g     F .text	00000078 AUDIO_MicBoost
00094c48 g     F .text	00000060 __mcmp
0009f88c g     F .text	000000a8 altera_avalon_uart_init
00085b60 g     F .text	0000003c SD_ReadBlock512
0008be0c g     F .text	00000018 __fp_lock_all
000a0a3c g     F .text	0000004c alt_ic_irq_enabled
00086a24 g     F .text	000000fc I2C_Write
00083ab8 g     F .text	00000220 Fat_FileOpen
00087480 g     F .text	00000068 SEG7_Number
0009bc60 g     F .text	00000098 alt_alarm_stop
0008726c g     F .text	0000003c LCD_Close
000a6c14 g     O .bss	00000004 alt_irq_active
00084968 g     F .text	000001e8 fatDelClusterList
000800fc g     F .exceptions	000000d0 alt_irq_handler
000a38bc g     O .rwdata	00000028 alt_dev_null
00087f40 g     F .text	000000f4 SDHAL_SendCmd
0009ce24 g     F .text	0000009c alt_set_flash_algorithm_func
00086dbc g     F .text	00000088 i2c_start
000a0378 g     F .text	00000044 alt_dcache_flush_all
00094670 g     F .text	00000068 __hi0bits
00088248 g     F .text	00000148 SDHAL_ReadData
0009ade4 g     F .text	00000088 .hidden __fixdfsi
0009c9cc g     F .text	00000044 alt_write_flash_command_8bit_device_8bit_mode
000a4de0 g       *ABS*	00000000 __ram_rwdata_end
000a4db4 g     O .rwdata	00000008 alt_dev_list
000831c4 g     F .text	00000044 Fat_Mount
0009be7c g     F .text	000000f8 write
00095314 g     F .text	000000a0 _putc_r
000a3008 g       *ABS*	00000000 __ram_rodata_end
0009b17c g     F .text	000000b0 fstat
00099d10 g     F .text	000000e0 .hidden __ledf2
00087bc0 g     F .text	0000006c myprintf
0009dc8c g     F .text	000000d8 alt_check_primary_table
000804cc g     F .text	00000028 lcd_open
000949c0 g     F .text	00000140 __pow5mult
00096e30 g     F .text	0000135c ___vfiprintf_internal_r
000a6c10 g     O .bss	00000004 __nlocale_changed
0008a1cc g     F .text	00000008 .hidden __umodsi3
0009c480 g     F .text	00000064 alt_flash_cfi_read
0009cbc4 g     F .text	00000038 alt_write_native_8bit
0008677c g     F .text	0000008c AUDIO_EnableSiteTone
000aa244 g       *ABS*	00000000 end
0009ca10 g     F .text	00000078 alt_write_flash_command_16bit_device_8bit_mode
000872a8 g     F .text	0000002c LED_AllOn
0009ef54 g     F .text	000004e8 altera_avalon_lcd_16207_write
0009fec0 g     F .text	000001ac altera_avalon_uart_write
0008c7b0 g     F .text	00000024 fseek
0009cf40 g     F .text	000005c8 alt_read_cfi_table
0009dec8 g     F .text	000000c4 altera_avalon_jtag_uart_init
000801cc g     F .exceptions	00000074 alt_instruction_exception_entry
000a1a50 g       *ABS*	00000000 __CTOR_LIST__
000c0000 g       *ABS*	00000000 __alt_stack_pointer
0009f6f4 g     F .text	00000088 alt_avalon_timer_sc_init
0009f7dc g     F .text	00000060 altera_avalon_uart_write_fd
0008b6cc g     F .text	00000064 .hidden __clzsi2
0009f83c g     F .text	00000050 altera_avalon_uart_close_fd
0009e598 g     F .text	00000218 altera_avalon_jtag_uart_write
000842b4 g     F .text	00000044 Fat_FileClose
0009c0bc g     F .text	00000090 alt_flash_cfi_init
0008bdfc g     F .text	00000004 __sfp_lock_acquire
00083758 g     F .text	0000006c Fat_FileCount
00094144 g     F .text	000000e8 memchr
0008fe20 g     F .text	00001ffc ___vfprintf_internal_r
0008da54 g     F .text	00000058 _sprintf_r
0008c06c g     F .text	000002f0 _free_r
00094090 g     F .text	00000010 __locale_mb_cur_max
000a1888 g     F .text	00000194 __call_exitprocs
000a6c0c g     O .bss	00000004 __mlocale_changed
000a4d98 g     O .rwdata	00000004 __malloc_sbrk_base
00080240 g     F .text	0000004c _start
000a6c24 g     O .bss	00000004 _alt_tick_rate
00094b00 g     F .text	00000148 __lshift
000a6c28 g     O .bss	00000004 _alt_nticks
00088a54 g     F .text	00000088 SD_CMD0
0009ba54 g     F .text	000000fc read
0009bfe0 g     F .text	000000a4 alt_sys_init
00095aec g     F .text	000001c8 __ssprint_r
0008d68c g     F .text	0000005c _open_r
000a1774 g     F .text	00000114 __register_exitproc
00086164 g     F .text	0000008c AUDIO_DacEnableSoftMute
00088570 g     F .text	00000060 SDHAL_DummyClock
00083cd8 g     F .text	00000044 Fat_FileSize
0009c94c g     F .text	00000040 alt_read_query_entry_16bit
00087d44 g     F .text	000000a4 crc16
000947c4 g     F .text	000001fc __multiply
00088a04 g     F .text	00000028 SD_Init
0009e238 g     F .text	00000068 altera_avalon_jtag_uart_close
000a3008 g       *ABS*	00000000 __ram_rwdata_start
000a1a50 g       *ABS*	00000000 __ram_rodata_start
000aa11c g     O .bss	00000028 __malloc_current_mallinfo
0009cc68 g     F .text	000001bc alt_set_flash_width_func
00094fbc g     F .text	0000013c __d2b
0008dc54 g     F .text	00000070 strcasecmp
00080528 g     F .text	00000030 led_display
0009dd64 g     F .text	00000060 altera_avalon_jtag_uart_read_fd
000a07c4 g     F .text	000000b4 alt_get_fd
000a01ac g     F .text	00000158 alt_busy_sleep
000920fc g     F .text	00000054 _close_r
000a0d38 g     F .text	00000210 alt_erase_block_amd
00083d1c g     F .text	00000498 Fat_FileRead
000a16f8 g     F .text	0000007c memcmp
0009de24 g     F .text	00000050 altera_avalon_jtag_uart_close_fd
000aa244 g       *ABS*	00000000 __alt_stack_base
0009de74 g     F .text	00000054 altera_avalon_jtag_uart_ioctl_fd
0008c99c g     F .text	000000cc _fwrite_r
0008567c g     F .text	00000110 fatFindUnusedDirectory
00087ed4 g     F .text	0000006c SDHAL_Init
00091fcc g     F .text	00000130 __swsetup_r
0009d508 g     F .text	00000784 alt_read_cfi_width
0008ab58 g     F .text	000008cc .hidden __divdf3
0008bcbc g     F .text	00000118 __sfp
00095210 g     F .text	00000078 __copybits
00085fd4 g     F .text	000000b0 AUDIO_DacDeemphasisControl
000a343c g     O .rwdata	00000408 __malloc_av_
00087a9c g     F .text	00000094 Wave_GetDataByteSize
0008be08 g     F .text	00000004 __sinit_lock_release
00091e40 g     F .text	000000f0 _vsnprintf_r
00086e44 g     F .text	00000074 i2c_stop
00099df0 g     F .text	00000724 .hidden __muldf3
0008db18 g     F .text	00000054 __sread
000842f8 g     F .text	00000214 Fat_SpeedTest
0008742c g     F .text	00000054 SEG7_Full
0008028c g     F .text	00000068 welcome_display
000a05f8 g     F .text	00000114 alt_find_file
000875ac g     F .text	000000e0 SEG7_Decimal
000a040c g     F .text	000000a4 alt_dev_llist_insert
0009b750 g     F .text	00000020 __malloc_lock
0009bbb0 g     F .text	000000b0 sbrk
0008de90 g     F .text	00001f90 ___svfprintf_internal_r
0008635c g     F .text	00000090 AUDIO_SetInputSource
0008b844 g     F .text	00000228 _fflush_r
00098320 g     F .text	000000c4 _calloc_r
000a4dd8 g     O .rwdata	00000008 alt_flash_dev_list
00085e9c g     F .text	00000048 AUDIO_InterfaceActive
0009cad8 g     F .text	0000004c alt_write_flash_command_16bit_device_16bit_mode
000855d0 g     F .text	000000ac fatFindDirectory
0008bf2c g     F .text	0000001c fopen
000a6bb8 g       *ABS*	00000000 __bss_start
0008799c g     F .text	00000080 Wave_GetChannelNum
0008d568 g     F .text	00000124 memset
00082c6c g     F .text	00000558 main
00085540 g     F .text	00000090 fatReadSecter
000a6c20 g     O .bss	00000004 alt_envp
000a6bfc g     O .bss	00000004 __malloc_max_total_mem
00087c2c g     F .text	00000088 myprintf_hexarray
0009ddc4 g     F .text	00000060 altera_avalon_jtag_uart_write_fd
00086fe8 g     F .text	00000154 i2c_read
00098304 g     F .text	0000001c __swbuf
0009f4e8 g     F .text	00000138 altera_avalon_lcd_16207_init
0008dc4c g     F .text	00000008 __sclose
00084d94 g     F .text	00000724 fatDump
000c0000 g       *ABS*	00000000 __alt_heap_limit
0008b830 g     F .text	00000014 fclose
0008b534 g     F .text	00000198 .hidden __truncdfsf2
00092350 g     F .text	00001728 _dtoa_r
0008cc88 g     F .text	000007a8 _malloc_r
00098734 g     F .text	00000030 __ascii_wctomb
00089ff4 g     F .text	00000040 SD_WriteData
000a4dc0 g     O .rwdata	00000004 alt_errno
0009cb74 g     F .text	00000050 alt_write_flash_command_32bit_device_32bit_mode
0008c82c g     F .text	000000b8 _fwalk
0009c4e4 g     F .text	00000158 alt_write_value_to_flash
00084b50 g     F .text	00000088 fatDumpDate
0009cbfc g     F .text	00000038 alt_write_native_16bit
00087e38 g     F .text	00000070 crc7
000953b4 g     F .text	000000c8 putc
000841b4 g     F .text	00000100 Fat_FileSeek
0008713c g     F .text	00000050 LCD_Open
0008a114 g     F .text	00000054 .hidden __divsi3
00089958 g     F .text	0000018c SD_ACMD6
0008bf48 g     F .text	00000124 _malloc_trim_r
000a1a50 g       *ABS*	00000000 __CTOR_END__
0008a624 g     F .text	00000424 .hidden __mulsf3
0008627c g     F .text	000000e0 AUDIO_LineInMute
0008dcc4 g     F .text	000000a4 strcmp
00085b9c g     F .text	0000003c SD_WriteBlock512
000861f0 g     F .text	0000008c AUDIO_MicMute
000a1a50 g       *ABS*	00000000 __flash_rodata_start
000a1a50 g       *ABS*	00000000 __DTOR_LIST__
000854b8 g     F .text	00000088 fatArray2Value
00088a2c g     F .text	00000028 SD_IsSupport4Bits
00099bac g     F .text	00000084 .hidden __nedf2
000845bc g     F .text	000000cc fat32ClusterType
0009bfac g     F .text	00000034 alt_irq_init
0009bb50 g     F .text	00000060 alt_release_fd
0008daac g     F .text	0000006c sprintf
000a2a1c g     O .rodata	00000100 .hidden __clz_tab
000874e8 g     F .text	000000c4 SEG7_Hex
00087b90 g     F .text	00000030 debug_output
000a6c08 g     O .bss	00000004 _PathLocale
00088de8 g     F .text	0000019c SD_ACMD41
000a16ac g     F .text	00000014 atexit
00091f70 g     F .text	0000005c _write_r
00088adc g     F .text	0000018c SD_CMD8
00083858 g     F .text	000001b0 fatComposeShortFilename
000940c0 g     F .text	0000001c setlocale
000a4d94 g     O .rwdata	00000004 _impure_ptr
000a6c18 g     O .bss	00000004 alt_argc
000a050c g     F .text	0000005c _do_dtors
000940ac g     F .text	00000008 __locale_cjk_lang
00083254 g     F .text	0000006c Fat_Type
00087cb4 g     F .text	00000090 myprintf_dwordarray
0008c35c g     F .text	00000454 _fseek_r
00086978 g     F .text	00000038 AUDIO_AdcFifoNotEmpty
0008d858 g     F .text	000001a8 __srefill_r
00080020 g       .exceptions	00000000 alt_irq_entry
00094e40 g     F .text	00000060 __ulp
0008be24 g     F .text	00000018 __fp_unlock_all
000829bc g     F .text	000002b0 Fat_Test
0008450c g     F .text	000000b0 fat16ClusterType
0009f620 g     F .text	00000060 altera_avalon_lcd_16207_write_fd
00086934 g     F .text	00000044 AUDIO_DacFifoSetData
000a4dac g     O .rwdata	00000008 alt_fs_list
00088c68 g     F .text	00000180 SD_CMD55
00082644 g     F .text	00000054 IRDA_init
0009ca88 g     F .text	00000050 alt_write_flash_command_32bit_device_8bit_mode
00089478 g     F .text	000001c0 SD_CMD10
00080020 g       *ABS*	00000000 __ram_exceptions_start
000863ec g     F .text	000000e4 AUDIO_SetSampleRate
000940dc g     F .text	0000000c localeconv
00080000 g       *ABS*	00000000 __alt_mem_onchip_memory2
000837c4 g     F .text	00000094 fatSameLongFilename
00082360 g     F .text	000002e4 handle_key
02000000 g       *ABS*	00000000 __alt_mem_av_tri_s1_cfi_flash_0
000a08a8 g     F .text	00000050 alt_ic_isr_register
0008ca68 g     F .text	00000040 fwrite
000a4de0 g       *ABS*	00000000 _edata
00084bd8 g     F .text	00000088 fatDumpTime
0009f77c g     F .text	00000060 altera_avalon_uart_read_fd
000aa244 g       *ABS*	00000000 _end
000a070c g     F .text	00000068 alt_flash_open_dev
000865e0 g     F .text	00000110 AUDIO_SetLineOutVol
000892b8 g     F .text	000001c0 SD_CMD9
00080240 g       *ABS*	00000000 __ram_exceptions_end
0009e2a0 g     F .text	000000ec altera_avalon_jtag_uart_ioctl
000a0998 g     F .text	000000a4 alt_ic_irq_disable
0008db74 g     F .text	0000007c __swrite
000a4d9c g     O .rwdata	00000004 __malloc_trim_threshold
000806a0 g     F .text	00000d3c build_wave_play_list
000940a0 g     F .text	0000000c __locale_msgcharset
000a16c0 g     F .text	00000038 exit
00087350 g     F .text	00000088 LED_LightCount
00082698 g     F .text	00000324 handle_IrDA
00085bd8 g     F .text	0000013c fatMountSdcard
0008c8e4 g     F .text	000000b8 _fwalk_reent
0008aa48 g     F .text	00000110 .hidden __floatunsisf
00094ca8 g     F .text	00000198 __mdiff
000813dc g     F .text	000004ac waveplay_start
000a0774 g     F .text	00000050 alt_flash_close_dev
0008a168 g     F .text	0000005c .hidden __modsi3
000a4da0 g     O .rwdata	00000004 __ctype_ptr__
000c0000 g       *ABS*	00000000 __alt_data_end
00080020 g     F .exceptions	00000000 alt_exception
0008be00 g     F .text	00000004 __sfp_lock_release
000885d0 g     F .text	00000334 SDLIB_Init
000a2ba6 g     O .rodata	00000101 _ctype_
00089c64 g     F .text	000001a8 SD_CMD17
0009fbf0 g     F .text	00000054 altera_avalon_uart_close
0008be3c g     F .text	000000f0 _fopen_r
000a1a1c g     F .text	00000034 _exit
000802f4 g     F .text	0000009c demo_introduce
000a006c g     F .text	00000140 alt_alarm_start
0008caa8 g     F .text	000001b8 __smakebuf_r
0009cc34 g     F .text	00000034 alt_write_native_32bit
0008ddf8 g     F .text	00000098 strlen
0009b8ac g     F .text	00000158 open
000868fc g     F .text	00000038 AUDIO_DacFifoNotFull
00099c30 g     F .text	000000e0 .hidden __gedf2
0009c3f4 g     F .text	0000008c alt_flash_cfi_get_info
000a4da8 g     O .rwdata	00000004 __wctomb
00096e18 g     F .text	00000018 __sprint_r
000a0878 g     F .text	00000030 alt_icache_flush_all
000a4dc4 g     O .rwdata	00000004 alt_priority_mask
000a08f8 g     F .text	000000a0 alt_ic_irq_enable
00088390 g     F .text	000001e0 SDHAL_WriteData
00087908 g     F .text	00000094 Wave_GetSampleRate
00091e1c g     F .text	00000024 __vfprintf_internal
000847f0 g     F .text	00000178 fatFindUnusedCluster
0009fc94 g     F .text	000001dc altera_avalon_uart_read
00098764 g     F .text	0000005c _wctomb_r
00087a1c g     F .text	00000080 Wave_GetSampleBitNum
0009a514 g     F .text	000008d0 .hidden __subdf3
00080474 g     F .text	00000058 DisplayTime
000946d8 g     F .text	000000b0 __lo0bits
000a4dcc g     O .rwdata	00000008 alt_alarm_list
000a04b0 g     F .text	0000005c _do_ctors
00089fb4 g     F .text	00000040 SD_ReadData
0009865c g     F .text	000000d8 wcrtomb
0009b030 g     F .text	000000d0 close
000a0cd0 g     F .text	00000068 alt_program_amd
00083208 g     F .text	0000004c Fat_Unmount
0009b534 g     F .text	00000080 alt_load
00098568 g     F .text	00000058 fputwc
0008cc74 g     F .text	00000014 free
0008be04 g     F .text	00000004 __sinit_lock_acquire
00094458 g     F .text	00000114 __multadd
00084c60 g     F .text	00000044 fatIsLastDir
00094430 g     F .text	00000028 _Bfree
0008911c g     F .text	0000019c SD_CMD3
00088904 g     F .text	00000080 SDLIB_ReadBlock512



Disassembly of section .entry:

00080000 <__reset>:
#if NIOS2_ICACHE_SIZE > 0 && defined(ALT_ALLOW_CODE_AT_RESET) && (!defined(ALT_SIM_OPTIMIZE) || defined(NIOS2_ECC_PRESENT))
    /* Assume the instruction cache size is always a power of two. */
#if NIOS2_ICACHE_SIZE > 0x8000
    movhi r2, %hi(NIOS2_ICACHE_SIZE)
#else
    movui r2, NIOS2_ICACHE_SIZE
   80000:	00840014 	movui	r2,4096
#endif

0:
    initi r2
   80004:	1001483a 	initi	r2
    addi r2, r2, -NIOS2_ICACHE_LINE_SIZE
   80008:	10bff804 	addi	r2,r2,-32
    bgt r2, zero, 0b
   8000c:	00bffd16 	blt	zero,r2,80004 <__alt_mem_av_tri_s1_cfi_flash_0+0xfe080004>
 * Jump to the _start entry point in the .text section if reset code
 * is allowed or if optimizing for RTL simulation.
 */
#if defined(ALT_ALLOW_CODE_AT_RESET) || defined(ALT_SIM_OPTIMIZE)
    /* Jump to the _start entry point in the .text section. */
    movhi r1, %hi(_start)
   80010:	00400234 	movhi	at,8
    ori r1, r1, %lo(_start)
   80014:	08409014 	ori	at,at,576
    jmp r1
   80018:	0800683a 	jmp	at
   8001c:	00000000 	call	0 <__alt_mem_onchip_memory2-0x80000>

Disassembly of section .exceptions:

00080020 <alt_exception>:

#else /* ALT_EXCEPTION_STACK disabled */
        /* 
         * Reserve space on normal stack for registers about to be pushed.
         */
        addi  sp, sp, -76
   80020:	deffed04 	addi	sp,sp,-76
         * documentation for details).
         *
         * Leave a gap in the stack frame at 4(sp) for the muldiv handler to
         * store zero into.
         */
        stw   ra,  0(sp)
   80024:	dfc00015 	stw	ra,0(sp)
        stw   r1,   8(sp)
   80028:	d8400215 	stw	at,8(sp)
        stw   r2,  12(sp)
   8002c:	d8800315 	stw	r2,12(sp)
        stw   r3,  16(sp)
   80030:	d8c00415 	stw	r3,16(sp)
        stw   r4,  20(sp)
   80034:	d9000515 	stw	r4,20(sp)
        stw   r5,  24(sp)
   80038:	d9400615 	stw	r5,24(sp)
        stw   r6,  28(sp)
   8003c:	d9800715 	stw	r6,28(sp)
        stw   r7,  32(sp)
   80040:	d9c00815 	stw	r7,32(sp)
        rdctl r5, estatus   /* Read early to avoid usage stall */
   80044:	000b307a 	rdctl	r5,estatus
        stw   r8,  36(sp)
   80048:	da000915 	stw	r8,36(sp)
        stw   r9,  40(sp)
   8004c:	da400a15 	stw	r9,40(sp)
        stw   r10, 44(sp)
   80050:	da800b15 	stw	r10,44(sp)
        stw   r11, 48(sp)
   80054:	dac00c15 	stw	r11,48(sp)
        stw   r12, 52(sp)
   80058:	db000d15 	stw	r12,52(sp)
        stw   r13, 56(sp)
   8005c:	db400e15 	stw	r13,56(sp)
        stw   r14, 60(sp)
   80060:	db800f15 	stw	r14,60(sp)
        stw   r15, 64(sp)
   80064:	dbc01015 	stw	r15,64(sp)
        /*
         * ea-4 contains the address of the instruction being executed
         * when the exception occured. For interrupt exceptions, we will
         * will be re-issue the isntruction. Store it in 72(sp)
         */
        stw   r5,  68(sp)  /* estatus */
   80068:	d9401115 	stw	r5,68(sp)
        addi  r15, ea, -4  /* instruction that caused exception */
   8006c:	ebffff04 	addi	r15,ea,-4
        stw   r15,  72(sp)
   80070:	dbc01215 	stw	r15,72(sp)
#else
        /*
         * Test to see if the exception was a software exception or caused 
         * by an external interrupt, and vector accordingly.
         */
        rdctl r4, ipending
   80074:	0009313a 	rdctl	r4,ipending
        andi  r2, r5, 1
   80078:	2880004c 	andi	r2,r5,1
        beq   r2, zero, .Lnot_irq
   8007c:	10000326 	beq	r2,zero,8008c <alt_exception+0x6c>
        beq   r4, zero, .Lnot_irq
   80080:	20000226 	beq	r4,zero,8008c <alt_exception+0x6c>
        /*
         * Now that all necessary registers have been preserved, call 
         * alt_irq_handler() to process the interrupts.
         */

        call alt_irq_handler
   80084:	00800fc0 	call	800fc <alt_irq_handler>

        .section .exceptions.irqreturn, "xa"

        br    .Lexception_exit
   80088:	00000706 	br	800a8 <alt_exception+0x88>
         * upon completion, so we write ea (address of instruction *after*
         * the one where the exception occured) into 72(sp). The actual
         * instruction that caused the exception is written in r2, which these
         * handlers will utilize.
         */
        stw   ea,  72(sp)  /* Don't re-issue */
   8008c:	df401215 	stw	ea,72(sp)
        ldhu.n  r2, 0(r4)
        ldhu.n  r3, 2(r4)
        slli.n  r3, r3, 16
        or.n    r2, r2, r3 /* Instruction that caused exception */
#else
        ldw   r2, -4(ea)   /* Instruction that caused exception */
   80090:	e8bfff17 	ldw	r2,-4(ea)
         * debugger is present) or go into an infinite loop since the
         * handling behavior is undefined; in that case we will not return here.
         */

        /* Load exception-causing address as first argument (r4) */
        addi   r4, ea, -4
   80094:	e93fff04 	addi	r4,ea,-4

        /* Call the instruction-exception entry */
        call   alt_instruction_exception_entry
   80098:	00801cc0 	call	801cc <alt_instruction_exception_entry>
         * instruction
         *
         * Return code was 0: Skip. The instruction after the exception is
         * already stored in 72(sp).
         */
        bne   r2, r0, .Lexception_exit
   8009c:	1000021e 	bne	r2,zero,800a8 <alt_exception+0x88>

        /*
         * Otherwise, modify 72(sp) to re-issue the instruction that caused the
         * exception.
         */
        addi  r15, ea, -4  /* instruction that caused exception */
   800a0:	ebffff04 	addi	r15,ea,-4
        stw   r15,  72(sp)
   800a4:	dbc01215 	stw	r15,72(sp)
        /* 
         * Restore the saved registers, so that all general purpose registers 
         * have been restored to their state at the time the interrupt occured.
         */

        ldw   r5,  68(sp)
   800a8:	d9401117 	ldw	r5,68(sp)
        ldw   ea,  72(sp)  /* This becomes the PC once eret is executed */
   800ac:	df401217 	ldw	ea,72(sp)
        ldw   ra,   0(sp)
   800b0:	dfc00017 	ldw	ra,0(sp)

        wrctl estatus, r5
   800b4:	2801707a 	wrctl	estatus,r5

        ldw   r1,   8(sp)
   800b8:	d8400217 	ldw	at,8(sp)
        ldw   r2,  12(sp)
   800bc:	d8800317 	ldw	r2,12(sp)
        ldw   r3,  16(sp)
   800c0:	d8c00417 	ldw	r3,16(sp)
        ldw   r4,  20(sp)
   800c4:	d9000517 	ldw	r4,20(sp)
        ldw   r5,  24(sp)
   800c8:	d9400617 	ldw	r5,24(sp)
        ldw   r6,  28(sp)
   800cc:	d9800717 	ldw	r6,28(sp)
        ldw   r7,  32(sp)
   800d0:	d9c00817 	ldw	r7,32(sp)

#if defined(ALT_EXCEPTION_STACK) && defined(ALT_STACK_CHECK)
        ldw   et, %gprel(alt_exception_old_stack_limit)(gp)
#endif

        ldw   r8,  36(sp)
   800d4:	da000917 	ldw	r8,36(sp)
        ldw   r9,  40(sp)
   800d8:	da400a17 	ldw	r9,40(sp)
        ldw   r10, 44(sp)
   800dc:	da800b17 	ldw	r10,44(sp)
        ldw   r11, 48(sp)
   800e0:	dac00c17 	ldw	r11,48(sp)
        ldw   r12, 52(sp)
   800e4:	db000d17 	ldw	r12,52(sp)
        ldw   r13, 56(sp)
   800e8:	db400e17 	ldw	r13,56(sp)
        ldw   r14, 60(sp)
   800ec:	db800f17 	ldw	r14,60(sp)
        ldw   r15, 64(sp)
   800f0:	dbc01017 	ldw	r15,64(sp)
        stw   et, %gprel(alt_stack_limit_value)(gp)
        stw   zero, %gprel(alt_exception_old_stack_limit)(gp)
#endif /* ALT_STACK_CHECK */
        ldw   sp,  76(sp)
#else /* ALT_EXCEPTION_STACK disabled */
        addi  sp, sp, 76
   800f4:	dec01304 	addi	sp,sp,76

        /*
         * Return to the interrupted instruction.
         */

        eret
   800f8:	ef80083a 	eret

000800fc <alt_irq_handler>:
 * instruction is present if the macro ALT_CI_INTERRUPT_VECTOR defined.
 */

void alt_irq_handler (void) __attribute__ ((section (".exceptions")));
void alt_irq_handler (void)
{
   800fc:	defff904 	addi	sp,sp,-28
   80100:	dfc00615 	stw	ra,24(sp)
   80104:	df000515 	stw	fp,20(sp)
   80108:	df000504 	addi	fp,sp,20
  
  /*
   * Notify the operating system that we are at interrupt level.
   */ 
  
  ALT_OS_INT_ENTER();
   8010c:	0001883a 	nop
#ifndef NIOS2_EIC_PRESENT
static ALT_INLINE alt_u32 ALT_ALWAYS_INLINE alt_irq_pending (void)
{
  alt_u32 active;

  NIOS2_READ_IPENDING (active);
   80110:	0005313a 	rdctl	r2,ipending
   80114:	e0bffe15 	stw	r2,-8(fp)

  return active;
   80118:	e0bffe17 	ldw	r2,-8(fp)
   * Consider the case where the high priority interupt is asserted during
   * the interrupt entry sequence for a lower priority interrupt to see why
   * this is the case.
   */

  active = alt_irq_pending ();
   8011c:	e0bffb15 	stw	r2,-20(fp)

  do
  {
    i = 0;
   80120:	e03ffd15 	stw	zero,-12(fp)
    mask = 1;
   80124:	00800044 	movi	r2,1
   80128:	e0bffc15 	stw	r2,-16(fp)
     * called to clear the interrupt condition.
     */

    do
    {
      if (active & mask)
   8012c:	e0fffb17 	ldw	r3,-20(fp)
   80130:	e0bffc17 	ldw	r2,-16(fp)
   80134:	1884703a 	and	r2,r3,r2
   80138:	10001426 	beq	r2,zero,8018c <alt_irq_handler+0x90>
      { 
#ifdef ALT_ENHANCED_INTERRUPT_API_PRESENT
        alt_irq[i].handler(alt_irq[i].context); 
   8013c:	008002f4 	movhi	r2,11
   80140:	10a85104 	addi	r2,r2,-24252
   80144:	e0fffd17 	ldw	r3,-12(fp)
   80148:	180690fa 	slli	r3,r3,3
   8014c:	10c5883a 	add	r2,r2,r3
   80150:	10c00017 	ldw	r3,0(r2)
   80154:	008002f4 	movhi	r2,11
   80158:	10a85104 	addi	r2,r2,-24252
   8015c:	e13ffd17 	ldw	r4,-12(fp)
   80160:	200890fa 	slli	r4,r4,3
   80164:	1105883a 	add	r2,r2,r4
   80168:	10800104 	addi	r2,r2,4
   8016c:	10800017 	ldw	r2,0(r2)
   80170:	1009883a 	mov	r4,r2
   80174:	183ee83a 	callr	r3
#else
        alt_irq[i].handler(alt_irq[i].context, i); 
#endif
        break;
   80178:	0001883a 	nop
#ifndef NIOS2_EIC_PRESENT
static ALT_INLINE alt_u32 ALT_ALWAYS_INLINE alt_irq_pending (void)
{
  alt_u32 active;

  NIOS2_READ_IPENDING (active);
   8017c:	0005313a 	rdctl	r2,ipending
   80180:	e0bfff15 	stw	r2,-4(fp)

  return active;
   80184:	e0bfff17 	ldw	r2,-4(fp)
   80188:	00000706 	br	801a8 <alt_irq_handler+0xac>
      }
      mask <<= 1;
   8018c:	e0bffc17 	ldw	r2,-16(fp)
   80190:	1085883a 	add	r2,r2,r2
   80194:	e0bffc15 	stw	r2,-16(fp)
      i++;
   80198:	e0bffd17 	ldw	r2,-12(fp)
   8019c:	10800044 	addi	r2,r2,1
   801a0:	e0bffd15 	stw	r2,-12(fp)

    } while (1);
   801a4:	003fe106 	br	8012c <__alt_mem_av_tri_s1_cfi_flash_0+0xfe08012c>

    active = alt_irq_pending ();
   801a8:	e0bffb15 	stw	r2,-20(fp)
    
  } while (active);
   801ac:	e0bffb17 	ldw	r2,-20(fp)
   801b0:	103fdb1e 	bne	r2,zero,80120 <__alt_mem_av_tri_s1_cfi_flash_0+0xfe080120>

  /*
   * Notify the operating system that interrupt processing is complete.
   */ 

  ALT_OS_INT_EXIT();
   801b4:	0001883a 	nop
}
   801b8:	e037883a 	mov	sp,fp
   801bc:	dfc00117 	ldw	ra,4(sp)
   801c0:	df000017 	ldw	fp,0(sp)
   801c4:	dec00204 	addi	sp,sp,8
   801c8:	f800283a 	ret

000801cc <alt_instruction_exception_entry>:
 * that handler if it has been registered. Absent a handler, it will
 * break break or hang as discussed below.
 */
int 
alt_instruction_exception_entry (alt_u32 exception_pc)
{
   801cc:	defffb04 	addi	sp,sp,-20
   801d0:	dfc00415 	stw	ra,16(sp)
   801d4:	df000315 	stw	fp,12(sp)
   801d8:	df000304 	addi	fp,sp,12
   801dc:	e13fff15 	stw	r4,-4(fp)
 * NIOS2_EXCEPTION_CAUSE_NOT_PRESENT. Your handling routine should
 * check the validity of the cause argument before proceeding.
 */
#ifdef NIOS2_HAS_EXTRA_EXCEPTION_INFO
  /* Get exception cause & "badaddr" */
  NIOS2_READ_EXCEPTION(cause);
   801e0:	000531fa 	rdctl	r2,exception
   801e4:	e0bffd15 	stw	r2,-12(fp)
  cause = ( (cause & NIOS2_EXCEPTION_REG_CAUSE_MASK) >>
   801e8:	e0bffd17 	ldw	r2,-12(fp)
   801ec:	10801f0c 	andi	r2,r2,124
   801f0:	1004d0ba 	srli	r2,r2,2
   801f4:	e0bffd15 	stw	r2,-12(fp)
              NIOS2_EXCEPTION_REG_CAUSE_OFST );

  NIOS2_READ_BADADDR(badaddr);
   801f8:	0005333a 	rdctl	r2,badaddr
   801fc:	e0bffe15 	stw	r2,-8(fp)
#else
  cause = NIOS2_EXCEPTION_CAUSE_NOT_PRESENT;
  badaddr = 0;
#endif /* NIOS2_HAS_EXTRA_EXCEPTION_INFO */

  if(alt_instruction_exception_handler) {
   80200:	d0a7aa17 	ldw	r2,-24920(gp)
   80204:	10000726 	beq	r2,zero,80224 <alt_instruction_exception_entry+0x58>
     * Call handler. Its return value indicates whether the exception-causing
     * instruction should be re-issued. The code that called us,
     * alt_eceptions_entry.S, will look at this value and adjust the ea
     * register as necessary
     */
    return alt_instruction_exception_handler(cause, exception_pc, badaddr);
   80208:	d0a7aa17 	ldw	r2,-24920(gp)
   8020c:	e0fffd17 	ldw	r3,-12(fp)
   80210:	1809883a 	mov	r4,r3
   80214:	e17fff17 	ldw	r5,-4(fp)
   80218:	e1bffe17 	ldw	r6,-8(fp)
   8021c:	103ee83a 	callr	r2
   80220:	00000206 	br	8022c <alt_instruction_exception_entry+0x60>
   *    (a peripheral which negates its interrupt output before its
   *    interrupt handler has been executed will cause spurious interrupts)
   */
  else {
#ifdef NIOS2_HAS_DEBUG_STUB
    NIOS2_BREAK();
   80224:	003da03a 	break	0
      ;
#endif /* NIOS2_HAS_DEBUG_STUB */
  }

  /* We should not get here. Remove compiler warning. */
  return NIOS2_EXCEPTION_RETURN_REISSUE_INST;
   80228:	0005883a 	mov	r2,zero
}
   8022c:	e037883a 	mov	sp,fp
   80230:	dfc00117 	ldw	ra,4(sp)
   80234:	df000017 	ldw	fp,0(sp)
   80238:	dec00204 	addi	sp,sp,8
   8023c:	f800283a 	ret

Disassembly of section .text:

00080240 <_start>:

    /* Assume the data cache size is always a power of two. */
#if NIOS2_DCACHE_SIZE > 0x8000
    movhi r2, %hi(NIOS2_DCACHE_SIZE)
#else
    movui r2, NIOS2_DCACHE_SIZE
   80240:	00820014 	movui	r2,2048
#endif

0:
    initd 0(r2)
   80244:	10000033 	initd	0(r2)
#ifdef NIOS2_ECC_PRESENT
    addi r2, r2, -4
#else
    addi r2, r2, -NIOS2_DCACHE_LINE_SIZE
   80248:	10bff804 	addi	r2,r2,-32
#endif
    bgt r2, zero, 0b
   8024c:	00bffd16 	blt	zero,r2,80244 <__alt_mem_av_tri_s1_cfi_flash_0+0xfe080244>

    /*
     * Now that the caches are initialized, set up the stack pointer and global pointer.
     * The values provided by the linker are assumed to be correctly aligned.
     */
    movhi sp, %hi(__alt_stack_pointer)
   80250:	06c00334 	movhi	sp,12
    ori sp, sp, %lo(__alt_stack_pointer)
   80254:	dec00014 	ori	sp,sp,0
    movhi gp, %hi(_gp)
   80258:	068002b4 	movhi	gp,10
    ori gp, gp, %lo(_gp)
   8025c:	d6b36114 	ori	gp,gp,52612
 */
#ifndef ALT_SIM_OPTIMIZE
    /* Log that the BSS is about to be cleared. */
    ALT_LOG_PUTS(alt_log_msg_bss)

    movhi r2, %hi(__bss_start)
   80260:	008002b4 	movhi	r2,10
    ori r2, r2, %lo(__bss_start)
   80264:	109aee14 	ori	r2,r2,27576

    movhi r3, %hi(__bss_end)
   80268:	00c002b4 	movhi	r3,10
    ori r3, r3, %lo(__bss_end)
   8026c:	18e89114 	ori	r3,r3,41540

    beq r2, r3, 1f
   80270:	10c00326 	beq	r2,r3,80280 <_start+0x40>

0:
    stw zero, (r2)
   80274:	10000015 	stw	zero,0(r2)
    addi r2, r2, 4
   80278:	10800104 	addi	r2,r2,4
    bltu r2, r3, 0b
   8027c:	10fffd36 	bltu	r2,r3,80274 <__alt_mem_av_tri_s1_cfi_flash_0+0xfe080274>
     * section aren't defined until alt_load() has been called).
     */
    mov   et, zero
#endif

    call alt_load
   80280:	009b5340 	call	9b534 <alt_load>

    /* Log that alt_main is about to be called. */
    ALT_LOG_PUTS(alt_log_msg_alt_main)

    /* Call the C entry point. It should never return. */
    call alt_main
   80284:	009b6d80 	call	9b6d8 <alt_main>

00080288 <alt_after_alt_main>:

    /* Wait in infinite loop in case alt_main does return. */
alt_after_alt_main:
    br alt_after_alt_main
   80288:	003fff06 	br	80288 <__alt_mem_av_tri_s1_cfi_flash_0+0xfe080288>

0008028c <welcome_display>:
/////////// Display config & function ///////////////////////////
/////////////////////////////////////////////////////////////////



void welcome_display(void){
   8028c:	defffd04 	addi	sp,sp,-12
   80290:	dfc00215 	stw	ra,8(sp)
   80294:	df000115 	stw	fp,4(sp)
   80298:	df000104 	addi	fp,sp,4
    int i;
    lcd_display(("\rWelcome Demo\nCDCARD-AUDIO\n"));
   8029c:	010002b4 	movhi	r4,10
   802a0:	21069404 	addi	r4,r4,6736
   802a4:	00804f40 	call	804f4 <lcd_display>
    for(i=0;i<5;i++){
   802a8:	e03fff15 	stw	zero,-4(fp)
   802ac:	00000906 	br	802d4 <welcome_display+0x48>
        LED_AllOn();
   802b0:	00872a80 	call	872a8 <LED_AllOn>
        usleep(50*1000);
   802b4:	0130d414 	movui	r4,50000
   802b8:	009bdfc0 	call	9bdfc <usleep>
        LED_AllOff();
   802bc:	00872d40 	call	872d4 <LED_AllOff>
        usleep(50*1000);
   802c0:	0130d414 	movui	r4,50000
   802c4:	009bdfc0 	call	9bdfc <usleep>


void welcome_display(void){
    int i;
    lcd_display(("\rWelcome Demo\nCDCARD-AUDIO\n"));
    for(i=0;i<5;i++){
   802c8:	e0bfff17 	ldw	r2,-4(fp)
   802cc:	10800044 	addi	r2,r2,1
   802d0:	e0bfff15 	stw	r2,-4(fp)
   802d4:	e0bfff17 	ldw	r2,-4(fp)
   802d8:	10800150 	cmplti	r2,r2,5
   802dc:	103ff41e 	bne	r2,zero,802b0 <__alt_mem_av_tri_s1_cfi_flash_0+0xfe0802b0>
        LED_AllOn();
        usleep(50*1000);
        LED_AllOff();
        usleep(50*1000);
    }
}
   802e0:	e037883a 	mov	sp,fp
   802e4:	dfc00117 	ldw	ra,4(sp)
   802e8:	df000017 	ldw	fp,0(sp)
   802ec:	dec00204 	addi	sp,sp,8
   802f0:	f800283a 	ret

000802f4 <demo_introduce>:

void demo_introduce(void){
   802f4:	defffe04 	addi	sp,sp,-8
   802f8:	dfc00115 	stw	ra,4(sp)
   802fc:	df000015 	stw	fp,0(sp)
   80300:	d839883a 	mov	fp,sp
    DEMO_PRINTF("===== Welcome to SD-CARD Demo Program =====\r\n");
   80304:	010002b4 	movhi	r4,10
   80308:	21069b04 	addi	r4,r4,6764
   8030c:	008d8280 	call	8d828 <puts>
    DEMO_PRINTF("Supported File System: FAT16,FAT32, English Short File Name,English Long File Name\r\n");
   80310:	010002b4 	movhi	r4,10
   80314:	2106a704 	addi	r4,r4,6812
   80318:	008d8280 	call	8d828 <puts>
    DEMO_PRINTF("Played Wave Files: Wave files on root directory.\r\n");
   8031c:	010002b4 	movhi	r4,10
   80320:	2106bc04 	addi	r4,r4,6896
   80324:	008d8280 	call	8d828 <puts>
    DEMO_PRINTF("Supported Media File: Uncompressed WAV File, Sample-Rate 96K/48K/44.1K/32K/8K, Stereo, 16-bits Sample.\r\n");
   80328:	010002b4 	movhi	r4,10
   8032c:	2106c904 	addi	r4,r4,6948
   80330:	008d8280 	call	8d828 <puts>
    DEMO_PRINTF("KEY4: Next Song\r\n");
   80334:	010002b4 	movhi	r4,10
   80338:	2106e304 	addi	r4,r4,7052
   8033c:	008d8280 	call	8d828 <puts>
#ifdef SUPPORT_PLAY_MODE
    DEMO_PRINTF("SW0 ON: Enable Repeat Mode\n");
   80340:	010002b4 	movhi	r4,10
   80344:	2106e804 	addi	r4,r4,7072
   80348:	008d8280 	call	8d828 <puts>
#endif
    DEMO_PRINTF("KEY3: Volume Up\r\n");
   8034c:	010002b4 	movhi	r4,10
   80350:	2106ef04 	addi	r4,r4,7100
   80354:	008d8280 	call	8d828 <puts>
    DEMO_PRINTF("KEY2: Volume Down\r\n");
   80358:	010002b4 	movhi	r4,10
   8035c:	2106f404 	addi	r4,r4,7120
   80360:	008d8280 	call	8d828 <puts>
    DEMO_PRINTF("Current Voluem:%d(%d-%d)\r\n\r\n", HW_DEFAULT_VOL, HW_MIN_VOL, HW_MAX_VOL);
   80364:	010002b4 	movhi	r4,10
   80368:	2106f904 	addi	r4,r4,7140
   8036c:	01401e04 	movi	r5,120
   80370:	01800bc4 	movi	r6,47
   80374:	01c01fc4 	movi	r7,127
   80378:	008d7140 	call	8d714 <printf>
}
   8037c:	e037883a 	mov	sp,fp
   80380:	dfc00117 	ldw	ra,4(sp)
   80384:	df000017 	ldw	fp,0(sp)
   80388:	dec00204 	addi	sp,sp,8
   8038c:	f800283a 	ret

00080390 <update_status>:

void update_status(void){
   80390:	deffe904 	addi	sp,sp,-92
   80394:	dfc01615 	stw	ra,88(sp)
   80398:	df001515 	stw	fp,84(sp)
   8039c:	dc401415 	stw	r17,80(sp)
   803a0:	dc001315 	stw	r16,76(sp)
   803a4:	df001504 	addi	fp,sp,84
#ifdef LCD_DISPLAY
    char szText[64];
    if(bKaraoke){
   803a8:	d0a79317 	ldw	r2,-25012(gp)
   803ac:	10001226 	beq	r2,zero,803f8 <update_status+0x68>
    	sprintf(szText,"\rScore:%d\nPercent:%d.%d\n",score,percent/10,percent%10);
   803b0:	d4279517 	ldw	r16,-25004(gp)
   803b4:	d0a79417 	ldw	r2,-25008(gp)
   803b8:	1009883a 	mov	r4,r2
   803bc:	01400284 	movi	r5,10
   803c0:	008a1140 	call	8a114 <__divsi3>
   803c4:	1023883a 	mov	r17,r2
   803c8:	d0a79417 	ldw	r2,-25008(gp)
   803cc:	1009883a 	mov	r4,r2
   803d0:	01400284 	movi	r5,10
   803d4:	008a1680 	call	8a168 <__modsi3>
   803d8:	d8800015 	stw	r2,0(sp)
   803dc:	e13fee04 	addi	r4,fp,-72
   803e0:	014002b4 	movhi	r5,10
   803e4:	29470104 	addi	r5,r5,7172
   803e8:	800d883a 	mov	r6,r16
   803ec:	880f883a 	mov	r7,r17
   803f0:	008daac0 	call	8daac <sprintf>
   803f4:	00001606 	br	80450 <update_status+0xc0>
    }else{
    	sprintf(szText, "\r%s\nVol:%d(%d-%d)%C\n", gWavePlay.szFilename, gWavePlay.nVolume,
   803f8:	008002f4 	movhi	r2,11
   803fc:	10a70f04 	addi	r2,r2,-25540
   80400:	10808d03 	ldbu	r2,564(r2)
   80404:	11c03fcc 	andi	r7,r2,255
    	        HW_MIN_VOL, HW_MAX_VOL, gWavePlay.bRepeatMode?'R':'S');
   80408:	008002f4 	movhi	r2,11
   8040c:	10a70f04 	addi	r2,r2,-25540
   80410:	10808e17 	ldw	r2,568(r2)
#ifdef LCD_DISPLAY
    char szText[64];
    if(bKaraoke){
    	sprintf(szText,"\rScore:%d\nPercent:%d.%d\n",score,percent/10,percent%10);
    }else{
    	sprintf(szText, "\r%s\nVol:%d(%d-%d)%C\n", gWavePlay.szFilename, gWavePlay.nVolume,
   80414:	10000226 	beq	r2,zero,80420 <update_status+0x90>
   80418:	00801484 	movi	r2,82
   8041c:	00000106 	br	80424 <update_status+0x94>
   80420:	008014c4 	movi	r2,83
   80424:	00c00bc4 	movi	r3,47
   80428:	d8c00015 	stw	r3,0(sp)
   8042c:	00c01fc4 	movi	r3,127
   80430:	d8c00115 	stw	r3,4(sp)
   80434:	d8800215 	stw	r2,8(sp)
   80438:	e13fee04 	addi	r4,fp,-72
   8043c:	014002b4 	movhi	r5,10
   80440:	29470804 	addi	r5,r5,7200
   80444:	018002f4 	movhi	r6,11
   80448:	31a79404 	addi	r6,r6,-25008
   8044c:	008daac0 	call	8daac <sprintf>
    	        HW_MIN_VOL, HW_MAX_VOL, gWavePlay.bRepeatMode?'R':'S');
    }

    //DEMO_PRINTF("RepeatMode: %d\r\n",gWavePlay.bRepeatMode?"On\n":"Off\n");
    lcd_display((szText));
   80450:	e13fee04 	addi	r4,fp,-72
   80454:	00804f40 	call	804f4 <lcd_display>
#endif
}
   80458:	e6fffe04 	addi	sp,fp,-8
   8045c:	dfc00317 	ldw	ra,12(sp)
   80460:	df000217 	ldw	fp,8(sp)
   80464:	dc400117 	ldw	r17,4(sp)
   80468:	dc000017 	ldw	r16,0(sp)
   8046c:	dec00404 	addi	sp,sp,16
   80470:	f800283a 	ret

00080474 <DisplayTime>:

void DisplayTime(alt_u32 TimeElapsed){
   80474:	defffc04 	addi	sp,sp,-16
   80478:	dfc00315 	stw	ra,12(sp)
   8047c:	df000215 	stw	fp,8(sp)
   80480:	df000204 	addi	fp,sp,8
   80484:	e13fff15 	stw	r4,-4(fp)
#ifdef SEG7_DISPLAY
    alt_u32 msx10;
    msx10 = TimeElapsed*100/alt_ticks_per_second();
   80488:	e0bfff17 	ldw	r2,-4(fp)
   8048c:	10c01924 	muli	r3,r2,100
 * Obtain the system clock rate in ticks/s. 
 */

static ALT_INLINE alt_u32 ALT_ALWAYS_INLINE alt_ticks_per_second (void)
{
  return _alt_tick_rate;
   80490:	008002b4 	movhi	r2,10
   80494:	109b0904 	addi	r2,r2,27684
   80498:	10800017 	ldw	r2,0(r2)
   8049c:	1809883a 	mov	r4,r3
   804a0:	100b883a 	mov	r5,r2
   804a4:	008a1c40 	call	8a1c4 <__udivsi3>
   804a8:	e0bffe15 	stw	r2,-8(fp)
    SEG7_Decimal(msx10, 0x01 << 2);
   804ac:	e13ffe17 	ldw	r4,-8(fp)
   804b0:	01400104 	movi	r5,4
   804b4:	00875ac0 	call	875ac <SEG7_Decimal>
#endif




}
   804b8:	e037883a 	mov	sp,fp
   804bc:	dfc00117 	ldw	ra,4(sp)
   804c0:	df000017 	ldw	fp,0(sp)
   804c4:	dec00204 	addi	sp,sp,8
   804c8:	f800283a 	ret

000804cc <lcd_open>:

void lcd_open(void){
   804cc:	defffe04 	addi	sp,sp,-8
   804d0:	dfc00115 	stw	ra,4(sp)
   804d4:	df000015 	stw	fp,0(sp)
   804d8:	d839883a 	mov	fp,sp
#ifdef LCD_DISPLAY
    LCD_Open();
   804dc:	008713c0 	call	8713c <LCD_Open>
#endif
}
   804e0:	e037883a 	mov	sp,fp
   804e4:	dfc00117 	ldw	ra,4(sp)
   804e8:	df000017 	ldw	fp,0(sp)
   804ec:	dec00204 	addi	sp,sp,8
   804f0:	f800283a 	ret

000804f4 <lcd_display>:

void lcd_display(char *pText){
   804f4:	defffd04 	addi	sp,sp,-12
   804f8:	dfc00215 	stw	ra,8(sp)
   804fc:	df000115 	stw	fp,4(sp)
   80500:	df000104 	addi	fp,sp,4
   80504:	e13fff15 	stw	r4,-4(fp)
#ifdef LCD_DISPLAY
    LCD_Clear();
   80508:	00871ec0 	call	871ec <LCD_Clear>
    LCD_TextOut(pText);
   8050c:	e13fff17 	ldw	r4,-4(fp)
   80510:	008718c0 	call	8718c <LCD_TextOut>
#endif
}
   80514:	e037883a 	mov	sp,fp
   80518:	dfc00117 	ldw	ra,4(sp)
   8051c:	df000017 	ldw	fp,0(sp)
   80520:	dec00204 	addi	sp,sp,8
   80524:	f800283a 	ret

00080528 <led_display>:

void led_display(alt_u32 mask){
   80528:	defffd04 	addi	sp,sp,-12
   8052c:	dfc00215 	stw	ra,8(sp)
   80530:	df000115 	stw	fp,4(sp)
   80534:	df000104 	addi	fp,sp,4
   80538:	e13fff15 	stw	r4,-4(fp)
#ifdef LCD_DISPLAY
    LED_Display(mask);
   8053c:	e13fff17 	ldw	r4,-4(fp)
   80540:	00873000 	call	87300 <LED_Display>
#endif
}
   80544:	e037883a 	mov	sp,fp
   80548:	dfc00117 	ldw	ra,4(sp)
   8054c:	df000017 	ldw	fp,0(sp)
   80550:	dec00204 	addi	sp,sp,8
   80554:	f800283a 	ret

00080558 <led_display_count>:

void led_display_count(alt_u8 count){
   80558:	defffd04 	addi	sp,sp,-12
   8055c:	dfc00215 	stw	ra,8(sp)
   80560:	df000115 	stw	fp,4(sp)
   80564:	df000104 	addi	fp,sp,4
   80568:	2005883a 	mov	r2,r4
   8056c:	e0bfff05 	stb	r2,-4(fp)
#ifdef DISPLAY_WAVE_POWER
    LED_LightCount(count);
   80570:	e0bfff03 	ldbu	r2,-4(fp)
   80574:	1009883a 	mov	r4,r2
   80578:	00873500 	call	87350 <LED_LightCount>
#endif
}
   8057c:	e037883a 	mov	sp,fp
   80580:	dfc00117 	ldw	ra,4(sp)
   80584:	df000017 	ldw	fp,0(sp)
   80588:	dec00204 	addi	sp,sp,8
   8058c:	f800283a 	ret

00080590 <wait_sdcard_insert>:

/////////////////////////////////////////////////////////////////
/////////// Routing for detect SD-CARD //////////////////////////
/////////////////////////////////////////////////////////////////

void wait_sdcard_insert(void){
   80590:	defffc04 	addi	sp,sp,-16
   80594:	dfc00315 	stw	ra,12(sp)
   80598:	df000215 	stw	fp,8(sp)
   8059c:	df000204 	addi	fp,sp,8
    bool bFirstTime2Detect = TRUE;
   805a0:	00800044 	movi	r2,1
   805a4:	e0bffe15 	stw	r2,-8(fp)
    alt_u8 led_mask = 0x02;
   805a8:	00800084 	movi	r2,2
   805ac:	e0bfff05 	stb	r2,-4(fp)
    LED_AllOff();
   805b0:	00872d40 	call	872d4 <LED_AllOff>
    //led = IORD_ALTERA_AVALON_PIO_DATA(LED_RED_SPAN); // low-active
    while(!SDLIB_Init()){
   805b4:	00001206 	br	80600 <wait_sdcard_insert+0x70>
        if (bFirstTime2Detect){
   805b8:	e0bffe17 	ldw	r2,-8(fp)
   805bc:	10000726 	beq	r2,zero,805dc <wait_sdcard_insert+0x4c>
            DEMO_PRINTF("Please insert SD card.\r\n");
   805c0:	010002b4 	movhi	r4,10
   805c4:	21070e04 	addi	r4,r4,7224
   805c8:	008d8280 	call	8d828 <puts>
            lcd_display(("\rPlease insert\nSD card.\n"));
   805cc:	010002b4 	movhi	r4,10
   805d0:	21071404 	addi	r4,r4,7248
   805d4:	00804f40 	call	804f4 <lcd_display>
            bFirstTime2Detect = FALSE;
   805d8:	e03ffe15 	stw	zero,-8(fp)
        }
        led_display((led_mask));
   805dc:	e0bfff03 	ldbu	r2,-4(fp)
   805e0:	1009883a 	mov	r4,r2
   805e4:	00805280 	call	80528 <led_display>
        usleep(100*1000);
   805e8:	010000b4 	movhi	r4,2
   805ec:	2121a804 	addi	r4,r4,-31072
   805f0:	009bdfc0 	call	9bdfc <usleep>
        led_mask ^= 0x02;
   805f4:	e0bfff03 	ldbu	r2,-4(fp)
   805f8:	1080009c 	xori	r2,r2,2
   805fc:	e0bfff05 	stb	r2,-4(fp)
void wait_sdcard_insert(void){
    bool bFirstTime2Detect = TRUE;
    alt_u8 led_mask = 0x02;
    LED_AllOff();
    //led = IORD_ALTERA_AVALON_PIO_DATA(LED_RED_SPAN); // low-active
    while(!SDLIB_Init()){
   80600:	00885d00 	call	885d0 <SDLIB_Init>
   80604:	103fec26 	beq	r2,zero,805b8 <__alt_mem_av_tri_s1_cfi_flash_0+0xfe0805b8>
        }
        led_display((led_mask));
        usleep(100*1000);
        led_mask ^= 0x02;
    } // while
    led_display((0x02));
   80608:	01000084 	movi	r4,2
   8060c:	00805280 	call	80528 <led_display>
    DEMO_PRINTF("Find SD card\r\n");
   80610:	010002b4 	movhi	r4,10
   80614:	21071b04 	addi	r4,r4,7276
   80618:	008d8280 	call	8d828 <puts>

}
   8061c:	e037883a 	mov	sp,fp
   80620:	dfc00117 	ldw	ra,4(sp)
   80624:	df000017 	ldw	fp,0(sp)
   80628:	dec00204 	addi	sp,sp,8
   8062c:	f800283a 	ret

00080630 <is_supporrted_sample_rate>:

/////////////////////////////////////////////////////////////////
/////////// Routing for building wave-file play list ////////////
/////////////////////////////////////////////////////////////////

bool is_supporrted_sample_rate(int sample_rate){
   80630:	defffd04 	addi	sp,sp,-12
   80634:	df000215 	stw	fp,8(sp)
   80638:	df000204 	addi	fp,sp,8
   8063c:	e13fff15 	stw	r4,-4(fp)
    bool bSupport = FALSE;
   80640:	e03ffe15 	stw	zero,-8(fp)
    switch(sample_rate){
   80644:	e0bfff17 	ldw	r2,-4(fp)
   80648:	00eb1114 	movui	r3,44100
   8064c:	10c00c26 	beq	r2,r3,80680 <is_supporrted_sample_rate+0x50>
   80650:	00eb1114 	movui	r3,44100
   80654:	18800516 	blt	r3,r2,8066c <is_supporrted_sample_rate+0x3c>
   80658:	10c7d020 	cmpeqi	r3,r2,8000
   8065c:	1800081e 	bne	r3,zero,80680 <is_supporrted_sample_rate+0x50>
   80660:	109f4020 	cmpeqi	r2,r2,32000
   80664:	1000061e 	bne	r2,zero,80680 <is_supporrted_sample_rate+0x50>
   80668:	00000806 	br	8068c <is_supporrted_sample_rate+0x5c>
   8066c:	00eee014 	movui	r3,48000
   80670:	10c00326 	beq	r2,r3,80680 <is_supporrted_sample_rate+0x50>
   80674:	00c00074 	movhi	r3,1
   80678:	18ddc004 	addi	r3,r3,30464
   8067c:	10c0031e 	bne	r2,r3,8068c <is_supporrted_sample_rate+0x5c>
        case 96000:
        case 48000:
        case 44100:
        case 32000:
        case 8000:
            bSupport = TRUE;
   80680:	00800044 	movi	r2,1
   80684:	e0bffe15 	stw	r2,-8(fp)
            break;
   80688:	0001883a 	nop
    }
    return bSupport;
   8068c:	e0bffe17 	ldw	r2,-8(fp)
}
   80690:	e037883a 	mov	sp,fp
   80694:	df000017 	ldw	fp,0(sp)
   80698:	dec00104 	addi	sp,sp,4
   8069c:	f800283a 	ret

000806a0 <build_wave_play_list>:


int build_wave_play_list(FAT_HANDLE hFat){
   806a0:	deff4004 	addi	sp,sp,-768
   806a4:	dfc0bf15 	stw	ra,764(sp)
   806a8:	df00be15 	stw	fp,760(sp)
   806ac:	dc40bd15 	stw	r17,756(sp)
   806b0:	dc00bc15 	stw	r16,752(sp)
   806b4:	df00be04 	addi	fp,sp,760
   806b8:	e13ffd15 	stw	r4,-12(fp)
    int count = 0;
   806bc:	e03f4215 	stw	zero,-760(fp)
    int count_bgm = 0;
   806c0:	e03f4315 	stw	zero,-756(fp)
    int count_vocal = 0;
   806c4:	e03f4415 	stw	zero,-752(fp)
    FILE_CONTEXT FileContext;
    FAT_FILE_HANDLE hFile;
    alt_u8 szHeader[128];
    char szWaveFilename[MAX_FILENAME_LENGTH];
    int sample_rate;
    bool bFlag = FALSE;
   806c8:	e03f4515 	stw	zero,-748(fp)
    int MusicType = 0;
   806cc:	e03f4615 	stw	zero,-744(fp)
    int nPos = 0;
   806d0:	e03f4715 	stw	zero,-740(fp)
    int length=0;
   806d4:	e03f4e15 	stw	zero,-712(fp)
    //
    gWavePlayList.nFileNum = 0;
   806d8:	008002b4 	movhi	r2,10
   806dc:	109b0c04 	addi	r2,r2,27696
   806e0:	10000015 	stw	zero,0(r2)
    if (!Fat_FileBrowseBegin(hFat,&hFileBrowse)){
   806e4:	e0bf5104 	addi	r2,fp,-700
   806e8:	e13ffd17 	ldw	r4,-12(fp)
   806ec:	100b883a 	mov	r5,r2
   806f0:	00832c00 	call	832c0 <Fat_FileBrowseBegin>
   806f4:	1000051e 	bne	r2,zero,8070c <build_wave_play_list+0x6c>
        DEMO_PRINTF("browse file fail.\n");
   806f8:	010002b4 	movhi	r4,10
   806fc:	21071f04 	addi	r4,r4,7292
   80700:	008d8280 	call	8d828 <puts>
        return 0;
   80704:	0005883a 	mov	r2,zero
   80708:	00032d06 	br	813c0 <build_wave_play_list+0xd20>
    }

    //
    while (Fat_FileBrowseNext(&hFileBrowse,&FileContext)){
   8070c:	0002e706 	br	812ac <build_wave_play_list+0xc0c>
    	MusicType = 0;
   80710:	e03f4615 	stw	zero,-744(fp)
		if (FileContext.bLongFilename){
   80714:	e0bf9317 	ldw	r2,-436(fp)
   80718:	10003c26 	beq	r2,zero,8080c <build_wave_play_list+0x16c>
			nPos = 0;
   8071c:	e03f4715 	stw	zero,-740(fp)
			alt_u16 *pData16;
			alt_u8 *pData8;
			pData16 = (alt_u16 *)FileContext.szName;
   80720:	e0bf5304 	addi	r2,fp,-692
   80724:	e0bf4815 	stw	r2,-736(fp)
			pData8 = FileContext.szName;
   80728:	e0bf5304 	addi	r2,fp,-692
   8072c:	e0bf4915 	stw	r2,-732(fp)
			while(*pData16){
   80730:	00002d06 	br	807e8 <build_wave_play_list+0x148>
				if (*pData8 && *pData8 != ' ')
   80734:	e0bf4917 	ldw	r2,-732(fp)
   80738:	10800003 	ldbu	r2,0(r2)
   8073c:	10803fcc 	andi	r2,r2,255
   80740:	10000e26 	beq	r2,zero,8077c <build_wave_play_list+0xdc>
   80744:	e0bf4917 	ldw	r2,-732(fp)
   80748:	10800003 	ldbu	r2,0(r2)
   8074c:	10803fcc 	andi	r2,r2,255
   80750:	10800820 	cmpeqi	r2,r2,32
   80754:	1000091e 	bne	r2,zero,8077c <build_wave_play_list+0xdc>
					szWaveFilename[nPos++] = *pData8;
   80758:	e0bf4717 	ldw	r2,-740(fp)
   8075c:	10c00044 	addi	r3,r2,1
   80760:	e0ff4715 	stw	r3,-740(fp)
   80764:	e0ff4917 	ldw	r3,-732(fp)
   80768:	18c00003 	ldbu	r3,0(r3)
   8076c:	1809883a 	mov	r4,r3
   80770:	e0ffbd04 	addi	r3,fp,-268
   80774:	1885883a 	add	r2,r3,r2
   80778:	11000005 	stb	r4,0(r2)
				pData8++;
   8077c:	e0bf4917 	ldw	r2,-732(fp)
   80780:	10800044 	addi	r2,r2,1
   80784:	e0bf4915 	stw	r2,-732(fp)
				if (*pData8 && *pData8 != ' ')
   80788:	e0bf4917 	ldw	r2,-732(fp)
   8078c:	10800003 	ldbu	r2,0(r2)
   80790:	10803fcc 	andi	r2,r2,255
   80794:	10000e26 	beq	r2,zero,807d0 <build_wave_play_list+0x130>
   80798:	e0bf4917 	ldw	r2,-732(fp)
   8079c:	10800003 	ldbu	r2,0(r2)
   807a0:	10803fcc 	andi	r2,r2,255
   807a4:	10800820 	cmpeqi	r2,r2,32
   807a8:	1000091e 	bne	r2,zero,807d0 <build_wave_play_list+0x130>
					szWaveFilename[nPos++] = *pData8;
   807ac:	e0bf4717 	ldw	r2,-740(fp)
   807b0:	10c00044 	addi	r3,r2,1
   807b4:	e0ff4715 	stw	r3,-740(fp)
   807b8:	e0ff4917 	ldw	r3,-732(fp)
   807bc:	18c00003 	ldbu	r3,0(r3)
   807c0:	1809883a 	mov	r4,r3
   807c4:	e0ffbd04 	addi	r3,fp,-268
   807c8:	1885883a 	add	r2,r3,r2
   807cc:	11000005 	stb	r4,0(r2)
				pData8++;
   807d0:	e0bf4917 	ldw	r2,-732(fp)
   807d4:	10800044 	addi	r2,r2,1
   807d8:	e0bf4915 	stw	r2,-732(fp)
				//
				pData16++;
   807dc:	e0bf4817 	ldw	r2,-736(fp)
   807e0:	10800084 	addi	r2,r2,2
   807e4:	e0bf4815 	stw	r2,-736(fp)
			nPos = 0;
			alt_u16 *pData16;
			alt_u8 *pData8;
			pData16 = (alt_u16 *)FileContext.szName;
			pData8 = FileContext.szName;
			while(*pData16){
   807e8:	e0bf4817 	ldw	r2,-736(fp)
   807ec:	1080000b 	ldhu	r2,0(r2)
   807f0:	10bfffcc 	andi	r2,r2,65535
   807f4:	103fcf1e 	bne	r2,zero,80734 <__alt_mem_av_tri_s1_cfi_flash_0+0xfe080734>
					szWaveFilename[nPos++] = *pData8;
				pData8++;
				//
				pData16++;
			}
			szWaveFilename[nPos] = 0;
   807f8:	e0ffbd04 	addi	r3,fp,-268
   807fc:	e0bf4717 	ldw	r2,-740(fp)
   80800:	1885883a 	add	r2,r3,r2
   80804:	10000005 	stb	zero,0(r2)
   80808:	00000506 	br	80820 <build_wave_play_list+0x180>
			//printf("\n--Music Name:%s --\n",szWaveFilename);
		}else{
			strcpy(szWaveFilename,FileContext.szName);
   8080c:	e0ffbd04 	addi	r3,fp,-268
   80810:	e0bf5304 	addi	r2,fp,-692
   80814:	1809883a 	mov	r4,r3
   80818:	100b883a 	mov	r5,r2
   8081c:	008dd680 	call	8dd68 <strcpy>
			//printf("\n--Music Name:%s --\n",FileContext.szName);
		}
		DEMO_PRINTF("szWaveFilename: %s\n",szWaveFilename);
   80820:	e0bfbd04 	addi	r2,fp,-268
   80824:	010002b4 	movhi	r4,10
   80828:	21072404 	addi	r4,r4,7312
   8082c:	100b883a 	mov	r5,r2
   80830:	008d7140 	call	8d714 <printf>
		length= strlen(szWaveFilename);
   80834:	e0bfbd04 	addi	r2,fp,-268
   80838:	1009883a 	mov	r4,r2
   8083c:	008ddf80 	call	8ddf8 <strlen>
   80840:	e0bf4e15 	stw	r2,-712(fp)
		if(length>=11){
   80844:	e0bf4e17 	ldw	r2,-712(fp)
   80848:	108002d0 	cmplti	r2,r2,11
   8084c:	1000691e 	bne	r2,zero,809f4 <build_wave_play_list+0x354>
			if((szWaveFilename[length-6] == 'l' || szWaveFilename[length-6] == 'L')
   80850:	e0bf4e17 	ldw	r2,-712(fp)
   80854:	10bffe84 	addi	r2,r2,-6
   80858:	e0ffbd04 	addi	r3,fp,-268
   8085c:	1885883a 	add	r2,r3,r2
   80860:	10800003 	ldbu	r2,0(r2)
   80864:	10803fcc 	andi	r2,r2,255
   80868:	1080201c 	xori	r2,r2,128
   8086c:	10bfe004 	addi	r2,r2,-128
   80870:	10801b20 	cmpeqi	r2,r2,108
   80874:	10000a1e 	bne	r2,zero,808a0 <build_wave_play_list+0x200>
   80878:	e0bf4e17 	ldw	r2,-712(fp)
   8087c:	10bffe84 	addi	r2,r2,-6
   80880:	e0ffbd04 	addi	r3,fp,-268
   80884:	1885883a 	add	r2,r3,r2
   80888:	10800003 	ldbu	r2,0(r2)
   8088c:	10803fcc 	andi	r2,r2,255
   80890:	1080201c 	xori	r2,r2,128
   80894:	10bfe004 	addi	r2,r2,-128
   80898:	10801318 	cmpnei	r2,r2,76
   8089c:	1000551e 	bne	r2,zero,809f4 <build_wave_play_list+0x354>
				&&(szWaveFilename[length-7] == 'a' || szWaveFilename[length-7] == 'A')
   808a0:	e0bf4e17 	ldw	r2,-712(fp)
   808a4:	10bffe44 	addi	r2,r2,-7
   808a8:	e0ffbd04 	addi	r3,fp,-268
   808ac:	1885883a 	add	r2,r3,r2
   808b0:	10800003 	ldbu	r2,0(r2)
   808b4:	10803fcc 	andi	r2,r2,255
   808b8:	1080201c 	xori	r2,r2,128
   808bc:	10bfe004 	addi	r2,r2,-128
   808c0:	10801860 	cmpeqi	r2,r2,97
   808c4:	10000a1e 	bne	r2,zero,808f0 <build_wave_play_list+0x250>
   808c8:	e0bf4e17 	ldw	r2,-712(fp)
   808cc:	10bffe44 	addi	r2,r2,-7
   808d0:	e0ffbd04 	addi	r3,fp,-268
   808d4:	1885883a 	add	r2,r3,r2
   808d8:	10800003 	ldbu	r2,0(r2)
   808dc:	10803fcc 	andi	r2,r2,255
   808e0:	1080201c 	xori	r2,r2,128
   808e4:	10bfe004 	addi	r2,r2,-128
   808e8:	10801058 	cmpnei	r2,r2,65
   808ec:	1000411e 	bne	r2,zero,809f4 <build_wave_play_list+0x354>
				&&(szWaveFilename[length-8] == 'c' || szWaveFilename[length-8] == 'C')
   808f0:	e0bf4e17 	ldw	r2,-712(fp)
   808f4:	10bffe04 	addi	r2,r2,-8
   808f8:	e0ffbd04 	addi	r3,fp,-268
   808fc:	1885883a 	add	r2,r3,r2
   80900:	10800003 	ldbu	r2,0(r2)
   80904:	10803fcc 	andi	r2,r2,255
   80908:	1080201c 	xori	r2,r2,128
   8090c:	10bfe004 	addi	r2,r2,-128
   80910:	108018e0 	cmpeqi	r2,r2,99
   80914:	10000a1e 	bne	r2,zero,80940 <build_wave_play_list+0x2a0>
   80918:	e0bf4e17 	ldw	r2,-712(fp)
   8091c:	10bffe04 	addi	r2,r2,-8
   80920:	e0ffbd04 	addi	r3,fp,-268
   80924:	1885883a 	add	r2,r3,r2
   80928:	10800003 	ldbu	r2,0(r2)
   8092c:	10803fcc 	andi	r2,r2,255
   80930:	1080201c 	xori	r2,r2,128
   80934:	10bfe004 	addi	r2,r2,-128
   80938:	108010d8 	cmpnei	r2,r2,67
   8093c:	10002d1e 	bne	r2,zero,809f4 <build_wave_play_list+0x354>
				&&(szWaveFilename[length-9] == 'o' || szWaveFilename[length-9] == 'O')
   80940:	e0bf4e17 	ldw	r2,-712(fp)
   80944:	10bffdc4 	addi	r2,r2,-9
   80948:	e0ffbd04 	addi	r3,fp,-268
   8094c:	1885883a 	add	r2,r3,r2
   80950:	10800003 	ldbu	r2,0(r2)
   80954:	10803fcc 	andi	r2,r2,255
   80958:	1080201c 	xori	r2,r2,128
   8095c:	10bfe004 	addi	r2,r2,-128
   80960:	10801be0 	cmpeqi	r2,r2,111
   80964:	10000a1e 	bne	r2,zero,80990 <build_wave_play_list+0x2f0>
   80968:	e0bf4e17 	ldw	r2,-712(fp)
   8096c:	10bffdc4 	addi	r2,r2,-9
   80970:	e0ffbd04 	addi	r3,fp,-268
   80974:	1885883a 	add	r2,r3,r2
   80978:	10800003 	ldbu	r2,0(r2)
   8097c:	10803fcc 	andi	r2,r2,255
   80980:	1080201c 	xori	r2,r2,128
   80984:	10bfe004 	addi	r2,r2,-128
   80988:	108013d8 	cmpnei	r2,r2,79
   8098c:	1000191e 	bne	r2,zero,809f4 <build_wave_play_list+0x354>
				&&(szWaveFilename[length-10] == 'v' || szWaveFilename[length-10] == 'V')
   80990:	e0bf4e17 	ldw	r2,-712(fp)
   80994:	10bffd84 	addi	r2,r2,-10
   80998:	e0ffbd04 	addi	r3,fp,-268
   8099c:	1885883a 	add	r2,r3,r2
   809a0:	10800003 	ldbu	r2,0(r2)
   809a4:	10803fcc 	andi	r2,r2,255
   809a8:	1080201c 	xori	r2,r2,128
   809ac:	10bfe004 	addi	r2,r2,-128
   809b0:	10801da0 	cmpeqi	r2,r2,118
   809b4:	10000a1e 	bne	r2,zero,809e0 <build_wave_play_list+0x340>
   809b8:	e0bf4e17 	ldw	r2,-712(fp)
   809bc:	10bffd84 	addi	r2,r2,-10
   809c0:	e0ffbd04 	addi	r3,fp,-268
   809c4:	1885883a 	add	r2,r3,r2
   809c8:	10800003 	ldbu	r2,0(r2)
   809cc:	10803fcc 	andi	r2,r2,255
   809d0:	1080201c 	xori	r2,r2,128
   809d4:	10bfe004 	addi	r2,r2,-128
   809d8:	10801598 	cmpnei	r2,r2,86
   809dc:	1000051e 	bne	r2,zero,809f4 <build_wave_play_list+0x354>
				){
					MusicType = 1;
   809e0:	00800044 	movi	r2,1
   809e4:	e0bf4615 	stw	r2,-744(fp)
					DEMO_PRINTF("vocal detected.\n");
   809e8:	010002b4 	movhi	r4,10
   809ec:	21072904 	addi	r4,r4,7332
   809f0:	008d8280 	call	8d828 <puts>
				}
		}
		if(length>=9){
   809f4:	e0bf4e17 	ldw	r2,-712(fp)
   809f8:	10800250 	cmplti	r2,r2,9
   809fc:	1000411e 	bne	r2,zero,80b04 <build_wave_play_list+0x464>
			if((szWaveFilename[length-6] == 'm' || szWaveFilename[length-6] == 'M')
   80a00:	e0bf4e17 	ldw	r2,-712(fp)
   80a04:	10bffe84 	addi	r2,r2,-6
   80a08:	e0ffbd04 	addi	r3,fp,-268
   80a0c:	1885883a 	add	r2,r3,r2
   80a10:	10800003 	ldbu	r2,0(r2)
   80a14:	10803fcc 	andi	r2,r2,255
   80a18:	1080201c 	xori	r2,r2,128
   80a1c:	10bfe004 	addi	r2,r2,-128
   80a20:	10801b60 	cmpeqi	r2,r2,109
   80a24:	10000a1e 	bne	r2,zero,80a50 <build_wave_play_list+0x3b0>
   80a28:	e0bf4e17 	ldw	r2,-712(fp)
   80a2c:	10bffe84 	addi	r2,r2,-6
   80a30:	e0ffbd04 	addi	r3,fp,-268
   80a34:	1885883a 	add	r2,r3,r2
   80a38:	10800003 	ldbu	r2,0(r2)
   80a3c:	10803fcc 	andi	r2,r2,255
   80a40:	1080201c 	xori	r2,r2,128
   80a44:	10bfe004 	addi	r2,r2,-128
   80a48:	10801358 	cmpnei	r2,r2,77
   80a4c:	10002d1e 	bne	r2,zero,80b04 <build_wave_play_list+0x464>
				&&(szWaveFilename[length-7] == 'g' || szWaveFilename[length-7] == 'G')
   80a50:	e0bf4e17 	ldw	r2,-712(fp)
   80a54:	10bffe44 	addi	r2,r2,-7
   80a58:	e0ffbd04 	addi	r3,fp,-268
   80a5c:	1885883a 	add	r2,r3,r2
   80a60:	10800003 	ldbu	r2,0(r2)
   80a64:	10803fcc 	andi	r2,r2,255
   80a68:	1080201c 	xori	r2,r2,128
   80a6c:	10bfe004 	addi	r2,r2,-128
   80a70:	108019e0 	cmpeqi	r2,r2,103
   80a74:	10000a1e 	bne	r2,zero,80aa0 <build_wave_play_list+0x400>
   80a78:	e0bf4e17 	ldw	r2,-712(fp)
   80a7c:	10bffe44 	addi	r2,r2,-7
   80a80:	e0ffbd04 	addi	r3,fp,-268
   80a84:	1885883a 	add	r2,r3,r2
   80a88:	10800003 	ldbu	r2,0(r2)
   80a8c:	10803fcc 	andi	r2,r2,255
   80a90:	1080201c 	xori	r2,r2,128
   80a94:	10bfe004 	addi	r2,r2,-128
   80a98:	108011d8 	cmpnei	r2,r2,71
   80a9c:	1000191e 	bne	r2,zero,80b04 <build_wave_play_list+0x464>
				&&(szWaveFilename[length-8] == 'b' || szWaveFilename[length-8] == 'B')
   80aa0:	e0bf4e17 	ldw	r2,-712(fp)
   80aa4:	10bffe04 	addi	r2,r2,-8
   80aa8:	e0ffbd04 	addi	r3,fp,-268
   80aac:	1885883a 	add	r2,r3,r2
   80ab0:	10800003 	ldbu	r2,0(r2)
   80ab4:	10803fcc 	andi	r2,r2,255
   80ab8:	1080201c 	xori	r2,r2,128
   80abc:	10bfe004 	addi	r2,r2,-128
   80ac0:	108018a0 	cmpeqi	r2,r2,98
   80ac4:	10000a1e 	bne	r2,zero,80af0 <build_wave_play_list+0x450>
   80ac8:	e0bf4e17 	ldw	r2,-712(fp)
   80acc:	10bffe04 	addi	r2,r2,-8
   80ad0:	e0ffbd04 	addi	r3,fp,-268
   80ad4:	1885883a 	add	r2,r3,r2
   80ad8:	10800003 	ldbu	r2,0(r2)
   80adc:	10803fcc 	andi	r2,r2,255
   80ae0:	1080201c 	xori	r2,r2,128
   80ae4:	10bfe004 	addi	r2,r2,-128
   80ae8:	10801098 	cmpnei	r2,r2,66
   80aec:	1000051e 	bne	r2,zero,80b04 <build_wave_play_list+0x464>
				){
					MusicType = 2;
   80af0:	00800084 	movi	r2,2
   80af4:	e0bf4615 	stw	r2,-744(fp)
					DEMO_PRINTF("bgm detected.\n");
   80af8:	010002b4 	movhi	r4,10
   80afc:	21072d04 	addi	r4,r4,7348
   80b00:	008d8280 	call	8d828 <puts>
				}
		}
		if(length >= 4){
   80b04:	e0bf4e17 	ldw	r2,-712(fp)
   80b08:	10800110 	cmplti	r2,r2,4
   80b0c:	1000481e 	bne	r2,zero,80c30 <build_wave_play_list+0x590>
		   if((szWaveFilename[length-1] =='V' || szWaveFilename[length-1] =='v')
   80b10:	e0bf4e17 	ldw	r2,-712(fp)
   80b14:	10bfffc4 	addi	r2,r2,-1
   80b18:	e0ffbd04 	addi	r3,fp,-268
   80b1c:	1885883a 	add	r2,r3,r2
   80b20:	10800003 	ldbu	r2,0(r2)
   80b24:	10803fcc 	andi	r2,r2,255
   80b28:	1080201c 	xori	r2,r2,128
   80b2c:	10bfe004 	addi	r2,r2,-128
   80b30:	108015a0 	cmpeqi	r2,r2,86
   80b34:	10000a1e 	bne	r2,zero,80b60 <build_wave_play_list+0x4c0>
   80b38:	e0bf4e17 	ldw	r2,-712(fp)
   80b3c:	10bfffc4 	addi	r2,r2,-1
   80b40:	e0ffbd04 	addi	r3,fp,-268
   80b44:	1885883a 	add	r2,r3,r2
   80b48:	10800003 	ldbu	r2,0(r2)
   80b4c:	10803fcc 	andi	r2,r2,255
   80b50:	1080201c 	xori	r2,r2,128
   80b54:	10bfe004 	addi	r2,r2,-128
   80b58:	10801d98 	cmpnei	r2,r2,118
   80b5c:	1000341e 	bne	r2,zero,80c30 <build_wave_play_list+0x590>
			&&(szWaveFilename[length-2] == 'A' || szWaveFilename[length-2] =='a')
   80b60:	e0bf4e17 	ldw	r2,-712(fp)
   80b64:	10bfff84 	addi	r2,r2,-2
   80b68:	e0ffbd04 	addi	r3,fp,-268
   80b6c:	1885883a 	add	r2,r3,r2
   80b70:	10800003 	ldbu	r2,0(r2)
   80b74:	10803fcc 	andi	r2,r2,255
   80b78:	1080201c 	xori	r2,r2,128
   80b7c:	10bfe004 	addi	r2,r2,-128
   80b80:	10801060 	cmpeqi	r2,r2,65
   80b84:	10000a1e 	bne	r2,zero,80bb0 <build_wave_play_list+0x510>
   80b88:	e0bf4e17 	ldw	r2,-712(fp)
   80b8c:	10bfff84 	addi	r2,r2,-2
   80b90:	e0ffbd04 	addi	r3,fp,-268
   80b94:	1885883a 	add	r2,r3,r2
   80b98:	10800003 	ldbu	r2,0(r2)
   80b9c:	10803fcc 	andi	r2,r2,255
   80ba0:	1080201c 	xori	r2,r2,128
   80ba4:	10bfe004 	addi	r2,r2,-128
   80ba8:	10801858 	cmpnei	r2,r2,97
   80bac:	1000201e 	bne	r2,zero,80c30 <build_wave_play_list+0x590>
			&&(szWaveFilename[length-3] == 'W' || szWaveFilename[length-3] == 'w')
   80bb0:	e0bf4e17 	ldw	r2,-712(fp)
   80bb4:	10bfff44 	addi	r2,r2,-3
   80bb8:	e0ffbd04 	addi	r3,fp,-268
   80bbc:	1885883a 	add	r2,r3,r2
   80bc0:	10800003 	ldbu	r2,0(r2)
   80bc4:	10803fcc 	andi	r2,r2,255
   80bc8:	1080201c 	xori	r2,r2,128
   80bcc:	10bfe004 	addi	r2,r2,-128
   80bd0:	108015e0 	cmpeqi	r2,r2,87
   80bd4:	10000a1e 	bne	r2,zero,80c00 <build_wave_play_list+0x560>
   80bd8:	e0bf4e17 	ldw	r2,-712(fp)
   80bdc:	10bfff44 	addi	r2,r2,-3
   80be0:	e0ffbd04 	addi	r3,fp,-268
   80be4:	1885883a 	add	r2,r3,r2
   80be8:	10800003 	ldbu	r2,0(r2)
   80bec:	10803fcc 	andi	r2,r2,255
   80bf0:	1080201c 	xori	r2,r2,128
   80bf4:	10bfe004 	addi	r2,r2,-128
   80bf8:	10801dd8 	cmpnei	r2,r2,119
   80bfc:	10000c1e 	bne	r2,zero,80c30 <build_wave_play_list+0x590>
			&&(szWaveFilename[length-4] == '.')){
   80c00:	e0bf4e17 	ldw	r2,-712(fp)
   80c04:	10bfff04 	addi	r2,r2,-4
   80c08:	e0ffbd04 	addi	r3,fp,-268
   80c0c:	1885883a 	add	r2,r3,r2
   80c10:	10800003 	ldbu	r2,0(r2)
   80c14:	10803fcc 	andi	r2,r2,255
   80c18:	1080201c 	xori	r2,r2,128
   80c1c:	10bfe004 	addi	r2,r2,-128
   80c20:	10800b98 	cmpnei	r2,r2,46
   80c24:	1000021e 	bne	r2,zero,80c30 <build_wave_play_list+0x590>
			   bFlag = TRUE;
   80c28:	00800044 	movi	r2,1
   80c2c:	e0bf4515 	stw	r2,-748(fp)
			}
		}
		if (bFlag){
   80c30:	e0bf4517 	ldw	r2,-748(fp)
   80c34:	10019d26 	beq	r2,zero,812ac <build_wave_play_list+0xc0c>
			// parsing wave format
			hFile = Fat_FileOpen(hFat,szWaveFilename);
   80c38:	e0bfbd04 	addi	r2,fp,-268
   80c3c:	e13ffd17 	ldw	r4,-12(fp)
   80c40:	100b883a 	mov	r5,r2
   80c44:	0083ab80 	call	83ab8 <Fat_FileOpen>
   80c48:	e0bf4f15 	stw	r2,-708(fp)
			if (!hFile){
   80c4c:	e0bf4f17 	ldw	r2,-708(fp)
   80c50:	1000041e 	bne	r2,zero,80c64 <build_wave_play_list+0x5c4>
				  DEMO_PRINTF("wave file open fail.\n");
   80c54:	010002b4 	movhi	r4,10
   80c58:	21073104 	addi	r4,r4,7364
   80c5c:	008d8280 	call	8d828 <puts>
				  continue;
   80c60:	00019206 	br	812ac <build_wave_play_list+0xc0c>
			}
			DEMO_PRINTF("Read OK.\n");
   80c64:	010002b4 	movhi	r4,10
   80c68:	21073704 	addi	r4,r4,7388
   80c6c:	008d8280 	call	8d828 <puts>

			//memset(szHeader,0,sizeof(szHeader));

			if (!Fat_FileRead(hFile, szHeader, sizeof(szHeader))){
   80c70:	e0bf9d04 	addi	r2,fp,-396
   80c74:	e13f4f17 	ldw	r4,-708(fp)
   80c78:	100b883a 	mov	r5,r2
   80c7c:	01802004 	movi	r6,128
   80c80:	0083d1c0 	call	83d1c <Fat_FileRead>
   80c84:	1000041e 	bne	r2,zero,80c98 <build_wave_play_list+0x5f8>
				  DEMO_PRINTF("wave file read fail.\n");
   80c88:	010002b4 	movhi	r4,10
   80c8c:	21073a04 	addi	r4,r4,7400
   80c90:	008d8280 	call	8d828 <puts>
				  continue;
   80c94:	00018506 	br	812ac <build_wave_play_list+0xc0c>
			}
			Fat_FileClose(hFile);
   80c98:	e13f4f17 	ldw	r4,-708(fp)
   80c9c:	00842b40 	call	842b4 <Fat_FileClose>
			}
			if(!(Wave_GetSampleBitNum(szHeader, sizeof(szHeader))==16)){
				DEMO_PRINTF("SampleBitNum. \n");
			}
			*/
			sample_rate =  Wave_GetSampleRate(szHeader, sizeof(szHeader));
   80ca0:	e0bf9d04 	addi	r2,fp,-396
   80ca4:	1009883a 	mov	r4,r2
   80ca8:	01402004 	movi	r5,128
   80cac:	00879080 	call	87908 <Wave_GetSampleRate>
   80cb0:	e0bf5015 	stw	r2,-704(fp)
			if (WAVE_IsWaveFile(szHeader, sizeof(szHeader)) &&
   80cb4:	e0bf9d04 	addi	r2,fp,-396
   80cb8:	1009883a 	mov	r4,r2
   80cbc:	01402004 	movi	r5,128
   80cc0:	00877bc0 	call	877bc <WAVE_IsWaveFile>
   80cc4:	10017926 	beq	r2,zero,812ac <build_wave_play_list+0xc0c>
				is_supporrted_sample_rate(sample_rate) &&
   80cc8:	e13f5017 	ldw	r4,-704(fp)
   80ccc:	00806300 	call	80630 <is_supporrted_sample_rate>
			if(!(Wave_GetSampleBitNum(szHeader, sizeof(szHeader))==16)){
				DEMO_PRINTF("SampleBitNum. \n");
			}
			*/
			sample_rate =  Wave_GetSampleRate(szHeader, sizeof(szHeader));
			if (WAVE_IsWaveFile(szHeader, sizeof(szHeader)) &&
   80cd0:	10017626 	beq	r2,zero,812ac <build_wave_play_list+0xc0c>
				is_supporrted_sample_rate(sample_rate) &&
				Wave_GetChannelNum(szHeader, sizeof(szHeader))==2 &&
   80cd4:	e0bf9d04 	addi	r2,fp,-396
   80cd8:	1009883a 	mov	r4,r2
   80cdc:	01402004 	movi	r5,128
   80ce0:	008799c0 	call	8799c <Wave_GetChannelNum>
				DEMO_PRINTF("SampleBitNum. \n");
			}
			*/
			sample_rate =  Wave_GetSampleRate(szHeader, sizeof(szHeader));
			if (WAVE_IsWaveFile(szHeader, sizeof(szHeader)) &&
				is_supporrted_sample_rate(sample_rate) &&
   80ce4:	10800098 	cmpnei	r2,r2,2
   80ce8:	1001701e 	bne	r2,zero,812ac <build_wave_play_list+0xc0c>
				Wave_GetChannelNum(szHeader, sizeof(szHeader))==2 &&
				Wave_GetSampleBitNum(szHeader, sizeof(szHeader))==16){
   80cec:	e0bf9d04 	addi	r2,fp,-396
   80cf0:	1009883a 	mov	r4,r2
   80cf4:	01402004 	movi	r5,128
   80cf8:	0087a1c0 	call	87a1c <Wave_GetSampleBitNum>
			}
			*/
			sample_rate =  Wave_GetSampleRate(szHeader, sizeof(szHeader));
			if (WAVE_IsWaveFile(szHeader, sizeof(szHeader)) &&
				is_supporrted_sample_rate(sample_rate) &&
				Wave_GetChannelNum(szHeader, sizeof(szHeader))==2 &&
   80cfc:	10800418 	cmpnei	r2,r2,16
   80d00:	10016a1e 	bne	r2,zero,812ac <build_wave_play_list+0xc0c>
				Wave_GetSampleBitNum(szHeader, sizeof(szHeader))==16){
				int i, j;
				bool tempend = FALSE;
   80d04:	e03f4c15 	stw	zero,-720(fp)
				if(MusicType==0){
   80d08:	e0bf4617 	ldw	r2,-744(fp)
   80d0c:	1000761e 	bne	r2,zero,80ee8 <build_wave_play_list+0x848>
					for(i=count-1;i>=0;i--){
   80d10:	e0bf4217 	ldw	r2,-760(fp)
   80d14:	10bfffc4 	addi	r2,r2,-1
   80d18:	e0bf4a15 	stw	r2,-728(fp)
   80d1c:	00006106 	br	80ea4 <build_wave_play_list+0x804>
						for(j=0;j<((strlen(gWavePlayList.szFilename[i])>strlen(szWaveFilename))? strlen(szWaveFilename): strlen(gWavePlayList.szFilename[i]));j++){
   80d20:	e03f4b15 	stw	zero,-724(fp)
   80d24:	00003e06 	br	80e20 <build_wave_play_list+0x780>
							if(gWavePlayList.szFilename[i][j]==szWaveFilename[j]){
   80d28:	008002b4 	movhi	r2,10
   80d2c:	109b0c04 	addi	r2,r2,27696
   80d30:	e0ff4a17 	ldw	r3,-728(fp)
   80d34:	1806917a 	slli	r3,r3,5
   80d38:	10c7883a 	add	r3,r2,r3
   80d3c:	e0bf4b17 	ldw	r2,-724(fp)
   80d40:	1885883a 	add	r2,r3,r2
   80d44:	10800104 	addi	r2,r2,4
   80d48:	11000003 	ldbu	r4,0(r2)
   80d4c:	e0ffbd04 	addi	r3,fp,-268
   80d50:	e0bf4b17 	ldw	r2,-724(fp)
   80d54:	1885883a 	add	r2,r3,r2
   80d58:	10800003 	ldbu	r2,0(r2)
   80d5c:	20c03fcc 	andi	r3,r4,255
   80d60:	18c0201c 	xori	r3,r3,128
   80d64:	18ffe004 	addi	r3,r3,-128
   80d68:	10803fcc 	andi	r2,r2,255
   80d6c:	1080201c 	xori	r2,r2,128
   80d70:	10bfe004 	addi	r2,r2,-128
   80d74:	18802726 	beq	r3,r2,80e14 <build_wave_play_list+0x774>

							}else if(gWavePlayList.szFilename[i][j] > szWaveFilename[j]){
   80d78:	008002b4 	movhi	r2,10
   80d7c:	109b0c04 	addi	r2,r2,27696
   80d80:	e0ff4a17 	ldw	r3,-728(fp)
   80d84:	1806917a 	slli	r3,r3,5
   80d88:	10c7883a 	add	r3,r2,r3
   80d8c:	e0bf4b17 	ldw	r2,-724(fp)
   80d90:	1885883a 	add	r2,r3,r2
   80d94:	10800104 	addi	r2,r2,4
   80d98:	11000003 	ldbu	r4,0(r2)
   80d9c:	e0ffbd04 	addi	r3,fp,-268
   80da0:	e0bf4b17 	ldw	r2,-724(fp)
   80da4:	1885883a 	add	r2,r3,r2
   80da8:	10c00003 	ldbu	r3,0(r2)
   80dac:	20803fcc 	andi	r2,r4,255
   80db0:	1080201c 	xori	r2,r2,128
   80db4:	10bfe004 	addi	r2,r2,-128
   80db8:	18c03fcc 	andi	r3,r3,255
   80dbc:	18c0201c 	xori	r3,r3,128
   80dc0:	18ffe004 	addi	r3,r3,-128
   80dc4:	1880100e 	bge	r3,r2,80e08 <build_wave_play_list+0x768>
								strcpy(gWavePlayList.szFilename[i+1],gWavePlayList.szFilename[i]);
   80dc8:	e0bf4a17 	ldw	r2,-728(fp)
   80dcc:	10800044 	addi	r2,r2,1
   80dd0:	1004917a 	slli	r2,r2,5
   80dd4:	10c00104 	addi	r3,r2,4
   80dd8:	008002b4 	movhi	r2,10
   80ddc:	109b0c04 	addi	r2,r2,27696
   80de0:	1889883a 	add	r4,r3,r2
   80de4:	e0bf4a17 	ldw	r2,-728(fp)
   80de8:	1004917a 	slli	r2,r2,5
   80dec:	10c00104 	addi	r3,r2,4
   80df0:	008002b4 	movhi	r2,10
   80df4:	109b0c04 	addi	r2,r2,27696
   80df8:	1885883a 	add	r2,r3,r2
   80dfc:	100b883a 	mov	r5,r2
   80e00:	008dd680 	call	8dd68 <strcpy>
								break;
   80e04:	00002106 	br	80e8c <build_wave_play_list+0x7ec>
							}else{
								tempend = TRUE;
   80e08:	00800044 	movi	r2,1
   80e0c:	e0bf4c15 	stw	r2,-720(fp)
								break;
   80e10:	00001e06 	br	80e8c <build_wave_play_list+0x7ec>
				Wave_GetSampleBitNum(szHeader, sizeof(szHeader))==16){
				int i, j;
				bool tempend = FALSE;
				if(MusicType==0){
					for(i=count-1;i>=0;i--){
						for(j=0;j<((strlen(gWavePlayList.szFilename[i])>strlen(szWaveFilename))? strlen(szWaveFilename): strlen(gWavePlayList.szFilename[i]));j++){
   80e14:	e0bf4b17 	ldw	r2,-724(fp)
   80e18:	10800044 	addi	r2,r2,1
   80e1c:	e0bf4b15 	stw	r2,-724(fp)
   80e20:	e43f4b17 	ldw	r16,-724(fp)
   80e24:	e0bf4a17 	ldw	r2,-728(fp)
   80e28:	1004917a 	slli	r2,r2,5
   80e2c:	10c00104 	addi	r3,r2,4
   80e30:	008002b4 	movhi	r2,10
   80e34:	109b0c04 	addi	r2,r2,27696
   80e38:	1885883a 	add	r2,r3,r2
   80e3c:	1009883a 	mov	r4,r2
   80e40:	008ddf80 	call	8ddf8 <strlen>
   80e44:	1023883a 	mov	r17,r2
   80e48:	e0bfbd04 	addi	r2,fp,-268
   80e4c:	1009883a 	mov	r4,r2
   80e50:	008ddf80 	call	8ddf8 <strlen>
   80e54:	1440042e 	bgeu	r2,r17,80e68 <build_wave_play_list+0x7c8>
   80e58:	e0bfbd04 	addi	r2,fp,-268
   80e5c:	1009883a 	mov	r4,r2
   80e60:	008ddf80 	call	8ddf8 <strlen>
   80e64:	00000806 	br	80e88 <build_wave_play_list+0x7e8>
   80e68:	e0bf4a17 	ldw	r2,-728(fp)
   80e6c:	1004917a 	slli	r2,r2,5
   80e70:	10c00104 	addi	r3,r2,4
   80e74:	008002b4 	movhi	r2,10
   80e78:	109b0c04 	addi	r2,r2,27696
   80e7c:	1885883a 	add	r2,r3,r2
   80e80:	1009883a 	mov	r4,r2
   80e84:	008ddf80 	call	8ddf8 <strlen>
   80e88:	80bfa736 	bltu	r16,r2,80d28 <__alt_mem_av_tri_s1_cfi_flash_0+0xfe080d28>
							}else{
								tempend = TRUE;
								break;
							}
						}
						if(tempend){
   80e8c:	e0bf4c17 	ldw	r2,-720(fp)
   80e90:	10000126 	beq	r2,zero,80e98 <build_wave_play_list+0x7f8>
							break;
   80e94:	00000506 	br	80eac <build_wave_play_list+0x80c>
				Wave_GetChannelNum(szHeader, sizeof(szHeader))==2 &&
				Wave_GetSampleBitNum(szHeader, sizeof(szHeader))==16){
				int i, j;
				bool tempend = FALSE;
				if(MusicType==0){
					for(i=count-1;i>=0;i--){
   80e98:	e0bf4a17 	ldw	r2,-728(fp)
   80e9c:	10bfffc4 	addi	r2,r2,-1
   80ea0:	e0bf4a15 	stw	r2,-728(fp)
   80ea4:	e0bf4a17 	ldw	r2,-728(fp)
   80ea8:	103f9d0e 	bge	r2,zero,80d20 <__alt_mem_av_tri_s1_cfi_flash_0+0xfe080d20>
						if(tempend){
							break;
						}
					}

					strcpy(gWavePlayList.szFilename[i+1],szWaveFilename);
   80eac:	e0bf4a17 	ldw	r2,-728(fp)
   80eb0:	10800044 	addi	r2,r2,1
   80eb4:	1004917a 	slli	r2,r2,5
   80eb8:	10c00104 	addi	r3,r2,4
   80ebc:	008002b4 	movhi	r2,10
   80ec0:	109b0c04 	addi	r2,r2,27696
   80ec4:	1887883a 	add	r3,r3,r2
   80ec8:	e0bfbd04 	addi	r2,fp,-268
   80ecc:	1809883a 	mov	r4,r3
   80ed0:	100b883a 	mov	r5,r2
   80ed4:	008dd680 	call	8dd68 <strcpy>
					count++;
   80ed8:	e0bf4217 	ldw	r2,-760(fp)
   80edc:	10800044 	addi	r2,r2,1
   80ee0:	e0bf4215 	stw	r2,-760(fp)
   80ee4:	0000f106 	br	812ac <build_wave_play_list+0xc0c>
					//DEMO_PRINTF("count++ \n");
				}else if(MusicType==1){
   80ee8:	e0bf4617 	ldw	r2,-744(fp)
   80eec:	10800058 	cmpnei	r2,r2,1
   80ef0:	1000761e 	bne	r2,zero,810cc <build_wave_play_list+0xa2c>
					for(i=count_vocal-1;i>=0;i--){
   80ef4:	e0bf4417 	ldw	r2,-752(fp)
   80ef8:	10bfffc4 	addi	r2,r2,-1
   80efc:	e0bf4a15 	stw	r2,-728(fp)
   80f00:	00006106 	br	81088 <build_wave_play_list+0x9e8>
						for(j=0;j<((strlen(gWavePlayList_vocal.szFilename[i])>strlen(szWaveFilename))? strlen(szWaveFilename): strlen(gWavePlayList_vocal.szFilename[i]));j++){
   80f04:	e03f4b15 	stw	zero,-724(fp)
   80f08:	00003e06 	br	81004 <build_wave_play_list+0x964>
							if(gWavePlayList_vocal.szFilename[i][j]==szWaveFilename[j]){
   80f0c:	008002f4 	movhi	r2,11
   80f10:	10a30e04 	addi	r2,r2,-29640
   80f14:	e0ff4a17 	ldw	r3,-728(fp)
   80f18:	1806917a 	slli	r3,r3,5
   80f1c:	10c7883a 	add	r3,r2,r3
   80f20:	e0bf4b17 	ldw	r2,-724(fp)
   80f24:	1885883a 	add	r2,r3,r2
   80f28:	10800104 	addi	r2,r2,4
   80f2c:	11000003 	ldbu	r4,0(r2)
   80f30:	e0ffbd04 	addi	r3,fp,-268
   80f34:	e0bf4b17 	ldw	r2,-724(fp)
   80f38:	1885883a 	add	r2,r3,r2
   80f3c:	10800003 	ldbu	r2,0(r2)
   80f40:	20c03fcc 	andi	r3,r4,255
   80f44:	18c0201c 	xori	r3,r3,128
   80f48:	18ffe004 	addi	r3,r3,-128
   80f4c:	10803fcc 	andi	r2,r2,255
   80f50:	1080201c 	xori	r2,r2,128
   80f54:	10bfe004 	addi	r2,r2,-128
   80f58:	18802726 	beq	r3,r2,80ff8 <build_wave_play_list+0x958>

							}else if(gWavePlayList_vocal.szFilename[i][j] > szWaveFilename[j]){
   80f5c:	008002f4 	movhi	r2,11
   80f60:	10a30e04 	addi	r2,r2,-29640
   80f64:	e0ff4a17 	ldw	r3,-728(fp)
   80f68:	1806917a 	slli	r3,r3,5
   80f6c:	10c7883a 	add	r3,r2,r3
   80f70:	e0bf4b17 	ldw	r2,-724(fp)
   80f74:	1885883a 	add	r2,r3,r2
   80f78:	10800104 	addi	r2,r2,4
   80f7c:	11000003 	ldbu	r4,0(r2)
   80f80:	e0ffbd04 	addi	r3,fp,-268
   80f84:	e0bf4b17 	ldw	r2,-724(fp)
   80f88:	1885883a 	add	r2,r3,r2
   80f8c:	10c00003 	ldbu	r3,0(r2)
   80f90:	20803fcc 	andi	r2,r4,255
   80f94:	1080201c 	xori	r2,r2,128
   80f98:	10bfe004 	addi	r2,r2,-128
   80f9c:	18c03fcc 	andi	r3,r3,255
   80fa0:	18c0201c 	xori	r3,r3,128
   80fa4:	18ffe004 	addi	r3,r3,-128
   80fa8:	1880100e 	bge	r3,r2,80fec <build_wave_play_list+0x94c>
								strcpy(gWavePlayList_vocal.szFilename[i+1],gWavePlayList_vocal.szFilename[i]);
   80fac:	e0bf4a17 	ldw	r2,-728(fp)
   80fb0:	10800044 	addi	r2,r2,1
   80fb4:	1004917a 	slli	r2,r2,5
   80fb8:	10c00104 	addi	r3,r2,4
   80fbc:	008002f4 	movhi	r2,11
   80fc0:	10a30e04 	addi	r2,r2,-29640
   80fc4:	1889883a 	add	r4,r3,r2
   80fc8:	e0bf4a17 	ldw	r2,-728(fp)
   80fcc:	1004917a 	slli	r2,r2,5
   80fd0:	10c00104 	addi	r3,r2,4
   80fd4:	008002f4 	movhi	r2,11
   80fd8:	10a30e04 	addi	r2,r2,-29640
   80fdc:	1885883a 	add	r2,r3,r2
   80fe0:	100b883a 	mov	r5,r2
   80fe4:	008dd680 	call	8dd68 <strcpy>
								break;
   80fe8:	00002106 	br	81070 <build_wave_play_list+0x9d0>
							}else{
								tempend = TRUE;
   80fec:	00800044 	movi	r2,1
   80ff0:	e0bf4c15 	stw	r2,-720(fp)
								break;
   80ff4:	00001e06 	br	81070 <build_wave_play_list+0x9d0>
					strcpy(gWavePlayList.szFilename[i+1],szWaveFilename);
					count++;
					//DEMO_PRINTF("count++ \n");
				}else if(MusicType==1){
					for(i=count_vocal-1;i>=0;i--){
						for(j=0;j<((strlen(gWavePlayList_vocal.szFilename[i])>strlen(szWaveFilename))? strlen(szWaveFilename): strlen(gWavePlayList_vocal.szFilename[i]));j++){
   80ff8:	e0bf4b17 	ldw	r2,-724(fp)
   80ffc:	10800044 	addi	r2,r2,1
   81000:	e0bf4b15 	stw	r2,-724(fp)
   81004:	e43f4b17 	ldw	r16,-724(fp)
   81008:	e0bf4a17 	ldw	r2,-728(fp)
   8100c:	1004917a 	slli	r2,r2,5
   81010:	10c00104 	addi	r3,r2,4
   81014:	008002f4 	movhi	r2,11
   81018:	10a30e04 	addi	r2,r2,-29640
   8101c:	1885883a 	add	r2,r3,r2
   81020:	1009883a 	mov	r4,r2
   81024:	008ddf80 	call	8ddf8 <strlen>
   81028:	1023883a 	mov	r17,r2
   8102c:	e0bfbd04 	addi	r2,fp,-268
   81030:	1009883a 	mov	r4,r2
   81034:	008ddf80 	call	8ddf8 <strlen>
   81038:	1440042e 	bgeu	r2,r17,8104c <build_wave_play_list+0x9ac>
   8103c:	e0bfbd04 	addi	r2,fp,-268
   81040:	1009883a 	mov	r4,r2
   81044:	008ddf80 	call	8ddf8 <strlen>
   81048:	00000806 	br	8106c <build_wave_play_list+0x9cc>
   8104c:	e0bf4a17 	ldw	r2,-728(fp)
   81050:	1004917a 	slli	r2,r2,5
   81054:	10c00104 	addi	r3,r2,4
   81058:	008002f4 	movhi	r2,11
   8105c:	10a30e04 	addi	r2,r2,-29640
   81060:	1885883a 	add	r2,r3,r2
   81064:	1009883a 	mov	r4,r2
   81068:	008ddf80 	call	8ddf8 <strlen>
   8106c:	80bfa736 	bltu	r16,r2,80f0c <__alt_mem_av_tri_s1_cfi_flash_0+0xfe080f0c>
							}else{
								tempend = TRUE;
								break;
							}
						}
						if(tempend){
   81070:	e0bf4c17 	ldw	r2,-720(fp)
   81074:	10000126 	beq	r2,zero,8107c <build_wave_play_list+0x9dc>
							break;
   81078:	00000506 	br	81090 <build_wave_play_list+0x9f0>

					strcpy(gWavePlayList.szFilename[i+1],szWaveFilename);
					count++;
					//DEMO_PRINTF("count++ \n");
				}else if(MusicType==1){
					for(i=count_vocal-1;i>=0;i--){
   8107c:	e0bf4a17 	ldw	r2,-728(fp)
   81080:	10bfffc4 	addi	r2,r2,-1
   81084:	e0bf4a15 	stw	r2,-728(fp)
   81088:	e0bf4a17 	ldw	r2,-728(fp)
   8108c:	103f9d0e 	bge	r2,zero,80f04 <__alt_mem_av_tri_s1_cfi_flash_0+0xfe080f04>
						if(tempend){
							break;
						}
					}

					strcpy(gWavePlayList_vocal.szFilename[i+1],szWaveFilename);
   81090:	e0bf4a17 	ldw	r2,-728(fp)
   81094:	10800044 	addi	r2,r2,1
   81098:	1004917a 	slli	r2,r2,5
   8109c:	10c00104 	addi	r3,r2,4
   810a0:	008002f4 	movhi	r2,11
   810a4:	10a30e04 	addi	r2,r2,-29640
   810a8:	1887883a 	add	r3,r3,r2
   810ac:	e0bfbd04 	addi	r2,fp,-268
   810b0:	1809883a 	mov	r4,r3
   810b4:	100b883a 	mov	r5,r2
   810b8:	008dd680 	call	8dd68 <strcpy>
					count_vocal++;
   810bc:	e0bf4417 	ldw	r2,-752(fp)
   810c0:	10800044 	addi	r2,r2,1
   810c4:	e0bf4415 	stw	r2,-752(fp)
   810c8:	00007806 	br	812ac <build_wave_play_list+0xc0c>
				}else if(MusicType==2){
   810cc:	e0bf4617 	ldw	r2,-744(fp)
   810d0:	10800098 	cmpnei	r2,r2,2
   810d4:	1000751e 	bne	r2,zero,812ac <build_wave_play_list+0xc0c>
					for(i=count_bgm-1;i>=0;i--){
   810d8:	e0bf4317 	ldw	r2,-756(fp)
   810dc:	10bfffc4 	addi	r2,r2,-1
   810e0:	e0bf4a15 	stw	r2,-728(fp)
   810e4:	00006106 	br	8126c <build_wave_play_list+0xbcc>
						for(j=0;j<((strlen(gWavePlayList_bgm.szFilename[i])>strlen(szWaveFilename))? strlen(szWaveFilename): strlen(gWavePlayList_bgm.szFilename[i]));j++){
   810e8:	e03f4b15 	stw	zero,-724(fp)
   810ec:	00003e06 	br	811e8 <build_wave_play_list+0xb48>
							if(gWavePlayList_bgm.szFilename[i][j]==szWaveFilename[j]){
   810f0:	008002b4 	movhi	r2,10
   810f4:	109f0d04 	addi	r2,r2,31796
   810f8:	e0ff4a17 	ldw	r3,-728(fp)
   810fc:	1806917a 	slli	r3,r3,5
   81100:	10c7883a 	add	r3,r2,r3
   81104:	e0bf4b17 	ldw	r2,-724(fp)
   81108:	1885883a 	add	r2,r3,r2
   8110c:	10800104 	addi	r2,r2,4
   81110:	11000003 	ldbu	r4,0(r2)
   81114:	e0ffbd04 	addi	r3,fp,-268
   81118:	e0bf4b17 	ldw	r2,-724(fp)
   8111c:	1885883a 	add	r2,r3,r2
   81120:	10800003 	ldbu	r2,0(r2)
   81124:	20c03fcc 	andi	r3,r4,255
   81128:	18c0201c 	xori	r3,r3,128
   8112c:	18ffe004 	addi	r3,r3,-128
   81130:	10803fcc 	andi	r2,r2,255
   81134:	1080201c 	xori	r2,r2,128
   81138:	10bfe004 	addi	r2,r2,-128
   8113c:	18802726 	beq	r3,r2,811dc <build_wave_play_list+0xb3c>

							}else if(gWavePlayList_bgm.szFilename[i][j] > szWaveFilename[j]){
   81140:	008002b4 	movhi	r2,10
   81144:	109f0d04 	addi	r2,r2,31796
   81148:	e0ff4a17 	ldw	r3,-728(fp)
   8114c:	1806917a 	slli	r3,r3,5
   81150:	10c7883a 	add	r3,r2,r3
   81154:	e0bf4b17 	ldw	r2,-724(fp)
   81158:	1885883a 	add	r2,r3,r2
   8115c:	10800104 	addi	r2,r2,4
   81160:	11000003 	ldbu	r4,0(r2)
   81164:	e0ffbd04 	addi	r3,fp,-268
   81168:	e0bf4b17 	ldw	r2,-724(fp)
   8116c:	1885883a 	add	r2,r3,r2
   81170:	10c00003 	ldbu	r3,0(r2)
   81174:	20803fcc 	andi	r2,r4,255
   81178:	1080201c 	xori	r2,r2,128
   8117c:	10bfe004 	addi	r2,r2,-128
   81180:	18c03fcc 	andi	r3,r3,255
   81184:	18c0201c 	xori	r3,r3,128
   81188:	18ffe004 	addi	r3,r3,-128
   8118c:	1880100e 	bge	r3,r2,811d0 <build_wave_play_list+0xb30>
								strcpy(gWavePlayList_bgm.szFilename[i+1],gWavePlayList_bgm.szFilename[i]);
   81190:	e0bf4a17 	ldw	r2,-728(fp)
   81194:	10800044 	addi	r2,r2,1
   81198:	1004917a 	slli	r2,r2,5
   8119c:	10c00104 	addi	r3,r2,4
   811a0:	008002b4 	movhi	r2,10
   811a4:	109f0d04 	addi	r2,r2,31796
   811a8:	1889883a 	add	r4,r3,r2
   811ac:	e0bf4a17 	ldw	r2,-728(fp)
   811b0:	1004917a 	slli	r2,r2,5
   811b4:	10c00104 	addi	r3,r2,4
   811b8:	008002b4 	movhi	r2,10
   811bc:	109f0d04 	addi	r2,r2,31796
   811c0:	1885883a 	add	r2,r3,r2
   811c4:	100b883a 	mov	r5,r2
   811c8:	008dd680 	call	8dd68 <strcpy>
								break;
   811cc:	00002106 	br	81254 <build_wave_play_list+0xbb4>
							}else{
								tempend = TRUE;
   811d0:	00800044 	movi	r2,1
   811d4:	e0bf4c15 	stw	r2,-720(fp)
								break;
   811d8:	00001e06 	br	81254 <build_wave_play_list+0xbb4>

					strcpy(gWavePlayList_vocal.szFilename[i+1],szWaveFilename);
					count_vocal++;
				}else if(MusicType==2){
					for(i=count_bgm-1;i>=0;i--){
						for(j=0;j<((strlen(gWavePlayList_bgm.szFilename[i])>strlen(szWaveFilename))? strlen(szWaveFilename): strlen(gWavePlayList_bgm.szFilename[i]));j++){
   811dc:	e0bf4b17 	ldw	r2,-724(fp)
   811e0:	10800044 	addi	r2,r2,1
   811e4:	e0bf4b15 	stw	r2,-724(fp)
   811e8:	e43f4b17 	ldw	r16,-724(fp)
   811ec:	e0bf4a17 	ldw	r2,-728(fp)
   811f0:	1004917a 	slli	r2,r2,5
   811f4:	10c00104 	addi	r3,r2,4
   811f8:	008002b4 	movhi	r2,10
   811fc:	109f0d04 	addi	r2,r2,31796
   81200:	1885883a 	add	r2,r3,r2
   81204:	1009883a 	mov	r4,r2
   81208:	008ddf80 	call	8ddf8 <strlen>
   8120c:	1023883a 	mov	r17,r2
   81210:	e0bfbd04 	addi	r2,fp,-268
   81214:	1009883a 	mov	r4,r2
   81218:	008ddf80 	call	8ddf8 <strlen>
   8121c:	1440042e 	bgeu	r2,r17,81230 <build_wave_play_list+0xb90>
   81220:	e0bfbd04 	addi	r2,fp,-268
   81224:	1009883a 	mov	r4,r2
   81228:	008ddf80 	call	8ddf8 <strlen>
   8122c:	00000806 	br	81250 <build_wave_play_list+0xbb0>
   81230:	e0bf4a17 	ldw	r2,-728(fp)
   81234:	1004917a 	slli	r2,r2,5
   81238:	10c00104 	addi	r3,r2,4
   8123c:	008002b4 	movhi	r2,10
   81240:	109f0d04 	addi	r2,r2,31796
   81244:	1885883a 	add	r2,r3,r2
   81248:	1009883a 	mov	r4,r2
   8124c:	008ddf80 	call	8ddf8 <strlen>
   81250:	80bfa736 	bltu	r16,r2,810f0 <__alt_mem_av_tri_s1_cfi_flash_0+0xfe0810f0>
							}else{
								tempend = TRUE;
								break;
							}
						}
						if(tempend){
   81254:	e0bf4c17 	ldw	r2,-720(fp)
   81258:	10000126 	beq	r2,zero,81260 <build_wave_play_list+0xbc0>
							break;
   8125c:	00000506 	br	81274 <build_wave_play_list+0xbd4>
					}

					strcpy(gWavePlayList_vocal.szFilename[i+1],szWaveFilename);
					count_vocal++;
				}else if(MusicType==2){
					for(i=count_bgm-1;i>=0;i--){
   81260:	e0bf4a17 	ldw	r2,-728(fp)
   81264:	10bfffc4 	addi	r2,r2,-1
   81268:	e0bf4a15 	stw	r2,-728(fp)
   8126c:	e0bf4a17 	ldw	r2,-728(fp)
   81270:	103f9d0e 	bge	r2,zero,810e8 <__alt_mem_av_tri_s1_cfi_flash_0+0xfe0810e8>
						if(tempend){
							break;
						}
					}

					strcpy(gWavePlayList_bgm.szFilename[i+1],szWaveFilename);
   81274:	e0bf4a17 	ldw	r2,-728(fp)
   81278:	10800044 	addi	r2,r2,1
   8127c:	1004917a 	slli	r2,r2,5
   81280:	10c00104 	addi	r3,r2,4
   81284:	008002b4 	movhi	r2,10
   81288:	109f0d04 	addi	r2,r2,31796
   8128c:	1887883a 	add	r3,r3,r2
   81290:	e0bfbd04 	addi	r2,fp,-268
   81294:	1809883a 	mov	r4,r3
   81298:	100b883a 	mov	r5,r2
   8129c:	008dd680 	call	8dd68 <strcpy>
					count_bgm++;
   812a0:	e0bf4317 	ldw	r2,-756(fp)
   812a4:	10800044 	addi	r2,r2,1
   812a8:	e0bf4315 	stw	r2,-756(fp)
        DEMO_PRINTF("browse file fail.\n");
        return 0;
    }

    //
    while (Fat_FileBrowseNext(&hFileBrowse,&FileContext)){
   812ac:	e0ff5104 	addi	r3,fp,-700
   812b0:	e0bf5304 	addi	r2,fp,-692
   812b4:	1809883a 	mov	r4,r3
   812b8:	100b883a 	mov	r5,r2
   812bc:	008332c0 	call	8332c <Fat_FileBrowseNext>
   812c0:	103d131e 	bne	r2,zero,80710 <__alt_mem_av_tri_s1_cfi_flash_0+0xfe080710>
					count_bgm++;
				}
			}
		}
    } // while
    gWavePlayList.nFileNum = count;
   812c4:	008002b4 	movhi	r2,10
   812c8:	109b0c04 	addi	r2,r2,27696
   812cc:	e0ff4217 	ldw	r3,-760(fp)
   812d0:	10c00015 	stw	r3,0(r2)
    gWavePlayList_bgm.nFileNum = count_bgm;
   812d4:	008002b4 	movhi	r2,10
   812d8:	109f0d04 	addi	r2,r2,31796
   812dc:	e0ff4317 	ldw	r3,-756(fp)
   812e0:	10c00015 	stw	r3,0(r2)
    gWavePlayList_vocal.nFileNum = count_vocal;
   812e4:	008002f4 	movhi	r2,11
   812e8:	10a30e04 	addi	r2,r2,-29640
   812ec:	e0ff4417 	ldw	r3,-752(fp)
   812f0:	10c00015 	stw	r3,0(r2)
    DEMO_PRINTF("count: %d\n", count);
   812f4:	010002b4 	movhi	r4,10
   812f8:	21074004 	addi	r4,r4,7424
   812fc:	e17f4217 	ldw	r5,-760(fp)
   81300:	008d7140 	call	8d714 <printf>
    DEMO_PRINTF("count_bgm: %d\n", count_bgm);
   81304:	010002b4 	movhi	r4,10
   81308:	21074304 	addi	r4,r4,7436
   8130c:	e17f4317 	ldw	r5,-756(fp)
   81310:	008d7140 	call	8d714 <printf>
    DEMO_PRINTF("count_vocal: %d \n", count_vocal);
   81314:	010002b4 	movhi	r4,10
   81318:	21074704 	addi	r4,r4,7452
   8131c:	e17f4417 	ldw	r5,-752(fp)
   81320:	008d7140 	call	8d714 <printf>
    int i;
    for(i=0;i<count;i++){
   81324:	e03f4d15 	stw	zero,-716(fp)
   81328:	00002106 	br	813b0 <build_wave_play_list+0xd10>
    	DEMO_PRINTF("%s", gWavePlayList.szFilename[i]);
   8132c:	e0bf4d17 	ldw	r2,-716(fp)
   81330:	1004917a 	slli	r2,r2,5
   81334:	10c00104 	addi	r3,r2,4
   81338:	008002b4 	movhi	r2,10
   8133c:	109b0c04 	addi	r2,r2,27696
   81340:	1885883a 	add	r2,r3,r2
   81344:	010002b4 	movhi	r4,10
   81348:	21074c04 	addi	r4,r4,7472
   8134c:	100b883a 	mov	r5,r2
   81350:	008d7140 	call	8d714 <printf>
    	DEMO_PRINTF(", %s", gWavePlayList_bgm.szFilename[i]);
   81354:	e0bf4d17 	ldw	r2,-716(fp)
   81358:	1004917a 	slli	r2,r2,5
   8135c:	10c00104 	addi	r3,r2,4
   81360:	008002b4 	movhi	r2,10
   81364:	109f0d04 	addi	r2,r2,31796
   81368:	1885883a 	add	r2,r3,r2
   8136c:	010002b4 	movhi	r4,10
   81370:	21074d04 	addi	r4,r4,7476
   81374:	100b883a 	mov	r5,r2
   81378:	008d7140 	call	8d714 <printf>
    	DEMO_PRINTF(", %s\n", gWavePlayList_vocal.szFilename[i]);
   8137c:	e0bf4d17 	ldw	r2,-716(fp)
   81380:	1004917a 	slli	r2,r2,5
   81384:	10c00104 	addi	r3,r2,4
   81388:	008002f4 	movhi	r2,11
   8138c:	10a30e04 	addi	r2,r2,-29640
   81390:	1885883a 	add	r2,r3,r2
   81394:	010002b4 	movhi	r4,10
   81398:	21074f04 	addi	r4,r4,7484
   8139c:	100b883a 	mov	r5,r2
   813a0:	008d7140 	call	8d714 <printf>
    gWavePlayList_vocal.nFileNum = count_vocal;
    DEMO_PRINTF("count: %d\n", count);
    DEMO_PRINTF("count_bgm: %d\n", count_bgm);
    DEMO_PRINTF("count_vocal: %d \n", count_vocal);
    int i;
    for(i=0;i<count;i++){
   813a4:	e0bf4d17 	ldw	r2,-716(fp)
   813a8:	10800044 	addi	r2,r2,1
   813ac:	e0bf4d15 	stw	r2,-716(fp)
   813b0:	e0ff4d17 	ldw	r3,-716(fp)
   813b4:	e0bf4217 	ldw	r2,-760(fp)
   813b8:	18bfdc16 	blt	r3,r2,8132c <__alt_mem_av_tri_s1_cfi_flash_0+0xfe08132c>
    	DEMO_PRINTF(", %s\n", gWavePlayList_vocal.szFilename[i]);
    }

    //Fat_FileBrowseEnd(&hFileBrowse);

    return count;
   813bc:	e0bf4217 	ldw	r2,-760(fp)
}
   813c0:	e6fffe04 	addi	sp,fp,-8
   813c4:	dfc00317 	ldw	ra,12(sp)
   813c8:	df000217 	ldw	fp,8(sp)
   813cc:	dc400117 	ldw	r17,4(sp)
   813d0:	dc000017 	ldw	r16,0(sp)
   813d4:	dec00404 	addi	sp,sp,16
   813d8:	f800283a 	ret

000813dc <waveplay_start>:



void waveplay_stop(void);

bool waveplay_start(char *pFilename, char *pFilename_vocal){
   813dc:	defff704 	addi	sp,sp,-36
   813e0:	dfc00815 	stw	ra,32(sp)
   813e4:	df000715 	stw	fp,28(sp)
   813e8:	dc000615 	stw	r16,24(sp)
   813ec:	df000704 	addi	fp,sp,28
   813f0:	e13ffd15 	stw	r4,-12(fp)
   813f4:	e17ffe15 	stw	r5,-8(fp)
    bool bSuccess;
    int nSize;
    //waveplay_stop();

  //  strcpyn(gWavePlay.szFilename, pFilename, FILENAME_LEN-1);
    strcpy(gWavePlay.szFilename, pFilename);
   813f8:	010002f4 	movhi	r4,11
   813fc:	21279404 	addi	r4,r4,-25008
   81400:	e17ffd17 	ldw	r5,-12(fp)
   81404:	008dd680 	call	8dd68 <strcpy>
    gWavePlay.hFile = Fat_FileOpen(hFat, pFilename);
   81408:	d0a78d17 	ldw	r2,-25036(gp)
   8140c:	1009883a 	mov	r4,r2
   81410:	e17ffd17 	ldw	r5,-12(fp)
   81414:	0083ab80 	call	83ab8 <Fat_FileOpen>
   81418:	1007883a 	mov	r3,r2
   8141c:	008002f4 	movhi	r2,11
   81420:	10a70f04 	addi	r2,r2,-25540
   81424:	10c00015 	stw	r3,0(r2)
    if (!gWavePlay.hFile)
   81428:	008002f4 	movhi	r2,11
   8142c:	10a70f04 	addi	r2,r2,-25540
   81430:	10800017 	ldw	r2,0(r2)
   81434:	1000031e 	bne	r2,zero,81444 <waveplay_start+0x68>
        DEMO_PRINTF("wave file open fail.\n");
   81438:	010002b4 	movhi	r4,10
   8143c:	21073104 	addi	r4,r4,7364
   81440:	008d8280 	call	8d828 <puts>

    //gWavePlay.szBuf = Fat_FileSize(gWavePlay.hFile);
    nSize = Fat_FileSize(gWavePlay.hFile);
   81444:	008002f4 	movhi	r2,11
   81448:	10a70f04 	addi	r2,r2,-25540
   8144c:	10800017 	ldw	r2,0(r2)
   81450:	1009883a 	mov	r4,r2
   81454:	0083cd80 	call	83cd8 <Fat_FileSize>
   81458:	e0bffa15 	stw	r2,-24(fp)

    if (gWavePlay.hFile){
   8145c:	008002f4 	movhi	r2,11
   81460:	10a70f04 	addi	r2,r2,-25540
   81464:	10800017 	ldw	r2,0(r2)
   81468:	10000e26 	beq	r2,zero,814a4 <waveplay_start+0xc8>
        bSuccess = Fat_FileRead(gWavePlay.hFile, gWavePlay.szBuf, WAVE_BUF_SIZE);
   8146c:	008002f4 	movhi	r2,11
   81470:	10a70f04 	addi	r2,r2,-25540
   81474:	10800017 	ldw	r2,0(r2)
   81478:	1009883a 	mov	r4,r2
   8147c:	014002f4 	movhi	r5,11
   81480:	29671004 	addi	r5,r5,-25536
   81484:	01808004 	movi	r6,512
   81488:	0083d1c0 	call	83d1c <Fat_FileRead>
   8148c:	e0bff915 	stw	r2,-28(fp)
        if (!bSuccess)
   81490:	e0bff917 	ldw	r2,-28(fp)
   81494:	1000031e 	bne	r2,zero,814a4 <waveplay_start+0xc8>
            DEMO_PRINTF("wave file read fail.\n");
   81498:	010002b4 	movhi	r4,10
   8149c:	21073a04 	addi	r4,r4,7400
   814a0:	008d8280 	call	8d828 <puts>
    }

                        // check wave format
    if (bSuccess){
   814a4:	e0bff917 	ldw	r2,-28(fp)
   814a8:	10007326 	beq	r2,zero,81678 <waveplay_start+0x29c>
            int sample_rate =  Wave_GetSampleRate(gWavePlay.szBuf, WAVE_BUF_SIZE);
   814ac:	010002f4 	movhi	r4,11
   814b0:	21271004 	addi	r4,r4,-25536
   814b4:	01408004 	movi	r5,512
   814b8:	00879080 	call	87908 <Wave_GetSampleRate>
   814bc:	e0bffb15 	stw	r2,-20(fp)
            if (WAVE_IsWaveFile(gWavePlay.szBuf, WAVE_BUF_SIZE) &&
   814c0:	010002f4 	movhi	r4,11
   814c4:	21271004 	addi	r4,r4,-25536
   814c8:	01408004 	movi	r5,512
   814cc:	00877bc0 	call	877bc <WAVE_IsWaveFile>
   814d0:	10006826 	beq	r2,zero,81674 <waveplay_start+0x298>
                is_supporrted_sample_rate(sample_rate) &&
   814d4:	e13ffb17 	ldw	r4,-20(fp)
   814d8:	00806300 	call	80630 <is_supporrted_sample_rate>
    }

                        // check wave format
    if (bSuccess){
            int sample_rate =  Wave_GetSampleRate(gWavePlay.szBuf, WAVE_BUF_SIZE);
            if (WAVE_IsWaveFile(gWavePlay.szBuf, WAVE_BUF_SIZE) &&
   814dc:	10006526 	beq	r2,zero,81674 <waveplay_start+0x298>
                is_supporrted_sample_rate(sample_rate) &&
                Wave_GetChannelNum(gWavePlay.szBuf, WAVE_BUF_SIZE)==2 &&
   814e0:	010002f4 	movhi	r4,11
   814e4:	21271004 	addi	r4,r4,-25536
   814e8:	01408004 	movi	r5,512
   814ec:	008799c0 	call	8799c <Wave_GetChannelNum>

                        // check wave format
    if (bSuccess){
            int sample_rate =  Wave_GetSampleRate(gWavePlay.szBuf, WAVE_BUF_SIZE);
            if (WAVE_IsWaveFile(gWavePlay.szBuf, WAVE_BUF_SIZE) &&
                is_supporrted_sample_rate(sample_rate) &&
   814f0:	10800098 	cmpnei	r2,r2,2
   814f4:	10005f1e 	bne	r2,zero,81674 <waveplay_start+0x298>
                Wave_GetChannelNum(gWavePlay.szBuf, WAVE_BUF_SIZE)==2 &&
                Wave_GetSampleBitNum(gWavePlay.szBuf, WAVE_BUF_SIZE)==16){
   814f8:	010002f4 	movhi	r4,11
   814fc:	21271004 	addi	r4,r4,-25536
   81500:	01408004 	movi	r5,512
   81504:	0087a1c0 	call	87a1c <Wave_GetSampleBitNum>
                        // check wave format
    if (bSuccess){
            int sample_rate =  Wave_GetSampleRate(gWavePlay.szBuf, WAVE_BUF_SIZE);
            if (WAVE_IsWaveFile(gWavePlay.szBuf, WAVE_BUF_SIZE) &&
                is_supporrted_sample_rate(sample_rate) &&
                Wave_GetChannelNum(gWavePlay.szBuf, WAVE_BUF_SIZE)==2 &&
   81508:	10800418 	cmpnei	r2,r2,16
   8150c:	1000591e 	bne	r2,zero,81674 <waveplay_start+0x298>
                Wave_GetSampleBitNum(gWavePlay.szBuf, WAVE_BUF_SIZE)==16){

                gWavePlay.uWavePlayPos = Wave_GetWaveOffset(gWavePlay.szBuf, WAVE_BUF_SIZE);
   81510:	010002f4 	movhi	r4,11
   81514:	21271004 	addi	r4,r4,-25536
   81518:	01408004 	movi	r5,512
   8151c:	0087b300 	call	87b30 <Wave_GetWaveOffset>
   81520:	1007883a 	mov	r3,r2
   81524:	008002f4 	movhi	r2,11
   81528:	10a70f04 	addi	r2,r2,-25540
   8152c:	10c08315 	stw	r3,524(r2)
                gWavePlay.uWaveMaxPlayPos = gWavePlay.uWavePlayPos + Wave_GetDataByteSize(gWavePlay.szBuf, WAVE_BUF_SIZE);
   81530:	008002f4 	movhi	r2,11
   81534:	10a70f04 	addi	r2,r2,-25540
   81538:	14008317 	ldw	r16,524(r2)
   8153c:	010002f4 	movhi	r4,11
   81540:	21271004 	addi	r4,r4,-25536
   81544:	01408004 	movi	r5,512
   81548:	0087a9c0 	call	87a9c <Wave_GetDataByteSize>
   8154c:	8087883a 	add	r3,r16,r2
   81550:	008002f4 	movhi	r2,11
   81554:	10a70f04 	addi	r2,r2,-25540
   81558:	10c08415 	stw	r3,528(r2)
                gWavePlay.uWaveReadPos = WAVE_BUF_SIZE;
   8155c:	008002f4 	movhi	r2,11
   81560:	10a70f04 	addi	r2,r2,-25540
   81564:	00c08004 	movi	r3,512
   81568:	10c08215 	stw	r3,520(r2)

                DEMO_PRINTF("gWavePlay.uWavePlayPos:%x\n",gWavePlay.uWavePlayPos);
   8156c:	008002f4 	movhi	r2,11
   81570:	10a70f04 	addi	r2,r2,-25540
   81574:	10808317 	ldw	r2,524(r2)
   81578:	010002b4 	movhi	r4,10
   8157c:	21075104 	addi	r4,r4,7492
   81580:	100b883a 	mov	r5,r2
   81584:	008d7140 	call	8d714 <printf>
                DEMO_PRINTF("gWavePlay.uWaveMaxPlayPos:%x\n",gWavePlay.uWaveMaxPlayPos);
   81588:	008002f4 	movhi	r2,11
   8158c:	10a70f04 	addi	r2,r2,-25540
   81590:	10808417 	ldw	r2,528(r2)
   81594:	010002b4 	movhi	r4,10
   81598:	21075804 	addi	r4,r4,7520
   8159c:	100b883a 	mov	r5,r2
   815a0:	008d7140 	call	8d714 <printf>
                DEMO_PRINTF("gWavePlay.uWaveReadPos:%x\n",gWavePlay.uWaveReadPos);
   815a4:	008002f4 	movhi	r2,11
   815a8:	10a70f04 	addi	r2,r2,-25540
   815ac:	10808217 	ldw	r2,520(r2)
   815b0:	010002b4 	movhi	r4,10
   815b4:	21076004 	addi	r4,r4,7552
   815b8:	100b883a 	mov	r5,r2
   815bc:	008d7140 	call	8d714 <printf>

                // setup sample rate
                AUDIO_InterfaceActive(FALSE);
   815c0:	0009883a 	mov	r4,zero
   815c4:	0085e9c0 	call	85e9c <AUDIO_InterfaceActive>
                if (sample_rate == 96000)
   815c8:	e0fffb17 	ldw	r3,-20(fp)
   815cc:	00800074 	movhi	r2,1
   815d0:	109dc004 	addi	r2,r2,30464
   815d4:	1880031e 	bne	r3,r2,815e4 <waveplay_start+0x208>
                    AUDIO_SetSampleRate(RATE_ADC96K_DAC96K);
   815d8:	01000144 	movi	r4,5
   815dc:	00863ec0 	call	863ec <AUDIO_SetSampleRate>
   815e0:	00001c06 	br	81654 <waveplay_start+0x278>
                else if (sample_rate == 48000)
   815e4:	e0fffb17 	ldw	r3,-20(fp)
   815e8:	00aee014 	movui	r2,48000
   815ec:	1880031e 	bne	r3,r2,815fc <waveplay_start+0x220>
                    AUDIO_SetSampleRate(RATE_ADC48K_DAC48K);
   815f0:	0009883a 	mov	r4,zero
   815f4:	00863ec0 	call	863ec <AUDIO_SetSampleRate>
   815f8:	00001606 	br	81654 <waveplay_start+0x278>
                else if (sample_rate == 44100)
   815fc:	e0fffb17 	ldw	r3,-20(fp)
   81600:	00ab1114 	movui	r2,44100
   81604:	1880031e 	bne	r3,r2,81614 <waveplay_start+0x238>
                    AUDIO_SetSampleRate(RATE_ADC44K1_DAC44K1);
   81608:	01000184 	movi	r4,6
   8160c:	00863ec0 	call	863ec <AUDIO_SetSampleRate>
   81610:	00001006 	br	81654 <waveplay_start+0x278>
                else if (sample_rate == 32000)
   81614:	e0bffb17 	ldw	r2,-20(fp)
   81618:	109f4018 	cmpnei	r2,r2,32000
   8161c:	1000031e 	bne	r2,zero,8162c <waveplay_start+0x250>
                    AUDIO_SetSampleRate(RATE_ADC32K_DAC32K);
   81620:	01000104 	movi	r4,4
   81624:	00863ec0 	call	863ec <AUDIO_SetSampleRate>
   81628:	00000a06 	br	81654 <waveplay_start+0x278>
                else if (sample_rate == 8000)
   8162c:	e0bffb17 	ldw	r2,-20(fp)
   81630:	1087d018 	cmpnei	r2,r2,8000
   81634:	1000031e 	bne	r2,zero,81644 <waveplay_start+0x268>
                    AUDIO_SetSampleRate(RATE_ADC8K_DAC8K);
   81638:	010000c4 	movi	r4,3
   8163c:	00863ec0 	call	863ec <AUDIO_SetSampleRate>
   81640:	00000406 	br	81654 <waveplay_start+0x278>
                else
                    DEMO_PRINTF("unsupported sample rate=%d\n", sample_rate);
   81644:	010002b4 	movhi	r4,10
   81648:	21076704 	addi	r4,r4,7580
   8164c:	e17ffb17 	ldw	r5,-20(fp)
   81650:	008d7140 	call	8d714 <printf>
                AUDIO_FifoClear();
   81654:	00869fc0 	call	869fc <AUDIO_FifoClear>
                AUDIO_InterfaceActive(TRUE);
   81658:	01000044 	movi	r4,1
   8165c:	0085e9c0 	call	85e9c <AUDIO_InterfaceActive>


                DEMO_PRINTF("sample rate=%d\n", sample_rate);
   81660:	010002b4 	movhi	r4,10
   81664:	21076e04 	addi	r4,r4,7608
   81668:	e17ffb17 	ldw	r5,-20(fp)
   8166c:	008d7140 	call	8d714 <printf>
   81670:	00000106 	br	81678 <waveplay_start+0x29c>
            }else{
                bSuccess = FALSE;
   81674:	e03ff915 	stw	zero,-28(fp)
            }
    }

    if(bKaraoke){
   81678:	d0a79317 	ldw	r2,-25012(gp)
   8167c:	10007826 	beq	r2,zero,81860 <waveplay_start+0x484>
    	strcpy(gWavePlay_vocal.szFilename, pFilename_vocal);
   81680:	010002f4 	movhi	r4,11
   81684:	21282404 	addi	r4,r4,-24432
   81688:	e17ffe17 	ldw	r5,-8(fp)
   8168c:	008dd680 	call	8dd68 <strcpy>
    	DEMO_PRINTF("(vocal) filename:%s\n",pFilename_vocal);
   81690:	010002b4 	movhi	r4,10
   81694:	21077204 	addi	r4,r4,7624
   81698:	e17ffe17 	ldw	r5,-8(fp)
   8169c:	008d7140 	call	8d714 <printf>
		gWavePlay_vocal.hFile = Fat_FileOpen(hFat, pFilename_vocal);
   816a0:	d0a78d17 	ldw	r2,-25036(gp)
   816a4:	1009883a 	mov	r4,r2
   816a8:	e17ffe17 	ldw	r5,-8(fp)
   816ac:	0083ab80 	call	83ab8 <Fat_FileOpen>
   816b0:	1007883a 	mov	r3,r2
   816b4:	008002f4 	movhi	r2,11
   816b8:	10a79f04 	addi	r2,r2,-24964
   816bc:	10c00015 	stw	r3,0(r2)
		if (!gWavePlay_vocal.hFile)
   816c0:	008002f4 	movhi	r2,11
   816c4:	10a79f04 	addi	r2,r2,-24964
   816c8:	10800017 	ldw	r2,0(r2)
   816cc:	1000031e 	bne	r2,zero,816dc <waveplay_start+0x300>
			DEMO_PRINTF("(vocal) wave file open fail.\n");
   816d0:	010002b4 	movhi	r4,10
   816d4:	21077804 	addi	r4,r4,7648
   816d8:	008d8280 	call	8d828 <puts>

		//gWavePlay.szBuf = Fat_FileSize(gWavePlay.hFile);
		nSize = Fat_FileSize(gWavePlay_vocal.hFile);
   816dc:	008002f4 	movhi	r2,11
   816e0:	10a79f04 	addi	r2,r2,-24964
   816e4:	10800017 	ldw	r2,0(r2)
   816e8:	1009883a 	mov	r4,r2
   816ec:	0083cd80 	call	83cd8 <Fat_FileSize>
   816f0:	e0bffa15 	stw	r2,-24(fp)

		if (gWavePlay_vocal.hFile){
   816f4:	008002f4 	movhi	r2,11
   816f8:	10a79f04 	addi	r2,r2,-24964
   816fc:	10800017 	ldw	r2,0(r2)
   81700:	10000e26 	beq	r2,zero,8173c <waveplay_start+0x360>
			bSuccess = Fat_FileRead(gWavePlay_vocal.hFile, gWavePlay_vocal.szBuf, WAVE_BUF_SIZE);
   81704:	008002f4 	movhi	r2,11
   81708:	10a79f04 	addi	r2,r2,-24964
   8170c:	10800017 	ldw	r2,0(r2)
   81710:	1009883a 	mov	r4,r2
   81714:	014002f4 	movhi	r5,11
   81718:	2967a004 	addi	r5,r5,-24960
   8171c:	01808004 	movi	r6,512
   81720:	0083d1c0 	call	83d1c <Fat_FileRead>
   81724:	e0bff915 	stw	r2,-28(fp)
			if (!bSuccess)
   81728:	e0bff917 	ldw	r2,-28(fp)
   8172c:	1000031e 	bne	r2,zero,8173c <waveplay_start+0x360>
				DEMO_PRINTF("(vocal) wave file read fail.\n");
   81730:	010002b4 	movhi	r4,10
   81734:	21078004 	addi	r4,r4,7680
   81738:	008d8280 	call	8d828 <puts>
		}

							// check wave format
		if (bSuccess){
   8173c:	e0bff917 	ldw	r2,-28(fp)
   81740:	10004726 	beq	r2,zero,81860 <waveplay_start+0x484>
			int sample_rate =  Wave_GetSampleRate(gWavePlay_vocal.szBuf, WAVE_BUF_SIZE);
   81744:	010002f4 	movhi	r4,11
   81748:	2127a004 	addi	r4,r4,-24960
   8174c:	01408004 	movi	r5,512
   81750:	00879080 	call	87908 <Wave_GetSampleRate>
   81754:	e0bffc15 	stw	r2,-16(fp)
			if (WAVE_IsWaveFile(gWavePlay_vocal.szBuf, WAVE_BUF_SIZE) &&
   81758:	010002f4 	movhi	r4,11
   8175c:	2127a004 	addi	r4,r4,-24960
   81760:	01408004 	movi	r5,512
   81764:	00877bc0 	call	877bc <WAVE_IsWaveFile>
   81768:	10003c26 	beq	r2,zero,8185c <waveplay_start+0x480>
				is_supporrted_sample_rate(sample_rate) &&
   8176c:	e13ffc17 	ldw	r4,-16(fp)
   81770:	00806300 	call	80630 <is_supporrted_sample_rate>
		}

							// check wave format
		if (bSuccess){
			int sample_rate =  Wave_GetSampleRate(gWavePlay_vocal.szBuf, WAVE_BUF_SIZE);
			if (WAVE_IsWaveFile(gWavePlay_vocal.szBuf, WAVE_BUF_SIZE) &&
   81774:	10003926 	beq	r2,zero,8185c <waveplay_start+0x480>
				is_supporrted_sample_rate(sample_rate) &&
				Wave_GetChannelNum(gWavePlay_vocal.szBuf, WAVE_BUF_SIZE)==2 &&
   81778:	010002f4 	movhi	r4,11
   8177c:	2127a004 	addi	r4,r4,-24960
   81780:	01408004 	movi	r5,512
   81784:	008799c0 	call	8799c <Wave_GetChannelNum>

							// check wave format
		if (bSuccess){
			int sample_rate =  Wave_GetSampleRate(gWavePlay_vocal.szBuf, WAVE_BUF_SIZE);
			if (WAVE_IsWaveFile(gWavePlay_vocal.szBuf, WAVE_BUF_SIZE) &&
				is_supporrted_sample_rate(sample_rate) &&
   81788:	10800098 	cmpnei	r2,r2,2
   8178c:	1000331e 	bne	r2,zero,8185c <waveplay_start+0x480>
				Wave_GetChannelNum(gWavePlay_vocal.szBuf, WAVE_BUF_SIZE)==2 &&
				Wave_GetSampleBitNum(gWavePlay_vocal.szBuf, WAVE_BUF_SIZE)==16){
   81790:	010002f4 	movhi	r4,11
   81794:	2127a004 	addi	r4,r4,-24960
   81798:	01408004 	movi	r5,512
   8179c:	0087a1c0 	call	87a1c <Wave_GetSampleBitNum>
							// check wave format
		if (bSuccess){
			int sample_rate =  Wave_GetSampleRate(gWavePlay_vocal.szBuf, WAVE_BUF_SIZE);
			if (WAVE_IsWaveFile(gWavePlay_vocal.szBuf, WAVE_BUF_SIZE) &&
				is_supporrted_sample_rate(sample_rate) &&
				Wave_GetChannelNum(gWavePlay_vocal.szBuf, WAVE_BUF_SIZE)==2 &&
   817a0:	10800418 	cmpnei	r2,r2,16
   817a4:	10002d1e 	bne	r2,zero,8185c <waveplay_start+0x480>
				Wave_GetSampleBitNum(gWavePlay_vocal.szBuf, WAVE_BUF_SIZE)==16){

				gWavePlay_vocal.uWavePlayPos = Wave_GetWaveOffset(gWavePlay_vocal.szBuf, WAVE_BUF_SIZE);
   817a8:	010002f4 	movhi	r4,11
   817ac:	2127a004 	addi	r4,r4,-24960
   817b0:	01408004 	movi	r5,512
   817b4:	0087b300 	call	87b30 <Wave_GetWaveOffset>
   817b8:	1007883a 	mov	r3,r2
   817bc:	008002f4 	movhi	r2,11
   817c0:	10a79f04 	addi	r2,r2,-24964
   817c4:	10c08315 	stw	r3,524(r2)
				gWavePlay_vocal.uWaveMaxPlayPos = gWavePlay_vocal.uWavePlayPos + Wave_GetDataByteSize(gWavePlay_vocal.szBuf, WAVE_BUF_SIZE);
   817c8:	008002f4 	movhi	r2,11
   817cc:	10a79f04 	addi	r2,r2,-24964
   817d0:	14008317 	ldw	r16,524(r2)
   817d4:	010002f4 	movhi	r4,11
   817d8:	2127a004 	addi	r4,r4,-24960
   817dc:	01408004 	movi	r5,512
   817e0:	0087a9c0 	call	87a9c <Wave_GetDataByteSize>
   817e4:	8087883a 	add	r3,r16,r2
   817e8:	008002f4 	movhi	r2,11
   817ec:	10a79f04 	addi	r2,r2,-24964
   817f0:	10c08415 	stw	r3,528(r2)
				gWavePlay_vocal.uWaveReadPos = WAVE_BUF_SIZE;
   817f4:	008002f4 	movhi	r2,11
   817f8:	10a79f04 	addi	r2,r2,-24964
   817fc:	00c08004 	movi	r3,512
   81800:	10c08215 	stw	r3,520(r2)

				DEMO_PRINTF("(vocal)gWavePlay.uWavePlayPos:%x\n",gWavePlay_vocal.uWavePlayPos);
   81804:	008002f4 	movhi	r2,11
   81808:	10a79f04 	addi	r2,r2,-24964
   8180c:	10808317 	ldw	r2,524(r2)
   81810:	010002b4 	movhi	r4,10
   81814:	21078804 	addi	r4,r4,7712
   81818:	100b883a 	mov	r5,r2
   8181c:	008d7140 	call	8d714 <printf>
				DEMO_PRINTF("(vocal)gWavePlay.uWaveMaxPlayPos:%x\n",gWavePlay_vocal.uWaveMaxPlayPos);
   81820:	008002f4 	movhi	r2,11
   81824:	10a79f04 	addi	r2,r2,-24964
   81828:	10808417 	ldw	r2,528(r2)
   8182c:	010002b4 	movhi	r4,10
   81830:	21079104 	addi	r4,r4,7748
   81834:	100b883a 	mov	r5,r2
   81838:	008d7140 	call	8d714 <printf>
				DEMO_PRINTF("(vocal)gWavePlay.uWaveReadPos:%x\n",gWavePlay_vocal.uWaveReadPos);
   8183c:	008002f4 	movhi	r2,11
   81840:	10a79f04 	addi	r2,r2,-24964
   81844:	10808217 	ldw	r2,520(r2)
   81848:	010002b4 	movhi	r4,10
   8184c:	21079b04 	addi	r4,r4,7788
   81850:	100b883a 	mov	r5,r2
   81854:	008d7140 	call	8d714 <printf>
   81858:	00000106 	br	81860 <waveplay_start+0x484>

			}else{
				bSuccess = FALSE;
   8185c:	e03ff915 	stw	zero,-28(fp)
			}
		}
    }
    if (!bSuccess)
   81860:	e0bff917 	ldw	r2,-28(fp)
   81864:	1000011e 	bne	r2,zero,8186c <waveplay_start+0x490>
        waveplay_stop();
   81868:	00823440 	call	82344 <waveplay_stop>

    return bSuccess;
   8186c:	e0bff917 	ldw	r2,-28(fp)
}
   81870:	e6ffff04 	addi	sp,fp,-4
   81874:	dfc00217 	ldw	ra,8(sp)
   81878:	df000117 	ldw	fp,4(sp)
   8187c:	dc000017 	ldw	r16,0(sp)
   81880:	dec00304 	addi	sp,sp,12
   81884:	f800283a 	ret

00081888 <waveplay_change_mode>:
bool waveplay_change_mode(char *pFilename){
   81888:	defff804 	addi	sp,sp,-32
   8188c:	dfc00715 	stw	ra,28(sp)
   81890:	df000615 	stw	fp,24(sp)
   81894:	dc000515 	stw	r16,20(sp)
   81898:	df000604 	addi	fp,sp,24
   8189c:	e13ffe15 	stw	r4,-8(fp)
    bool bSuccess;
    int nSize;
    alt_u32 tempwaveoffset = Wave_GetWaveOffset(gWavePlay.szBuf, WAVE_BUF_SIZE);
   818a0:	010002f4 	movhi	r4,11
   818a4:	21271004 	addi	r4,r4,-25536
   818a8:	01408004 	movi	r5,512
   818ac:	0087b300 	call	87b30 <Wave_GetWaveOffset>
   818b0:	e0bffb15 	stw	r2,-20(fp)
    //waveplay_stop();

  //  strcpyn(gWavePlay.szFilename, pFilename, FILENAME_LEN-1);
    strcpy(gWavePlay.szFilename, pFilename);
   818b4:	010002f4 	movhi	r4,11
   818b8:	21279404 	addi	r4,r4,-25008
   818bc:	e17ffe17 	ldw	r5,-8(fp)
   818c0:	008dd680 	call	8dd68 <strcpy>
    gWavePlay.hFile = Fat_FileOpen(hFat, pFilename);
   818c4:	d0a78d17 	ldw	r2,-25036(gp)
   818c8:	1009883a 	mov	r4,r2
   818cc:	e17ffe17 	ldw	r5,-8(fp)
   818d0:	0083ab80 	call	83ab8 <Fat_FileOpen>
   818d4:	1007883a 	mov	r3,r2
   818d8:	008002f4 	movhi	r2,11
   818dc:	10a70f04 	addi	r2,r2,-25540
   818e0:	10c00015 	stw	r3,0(r2)
    if (!gWavePlay.hFile)
   818e4:	008002f4 	movhi	r2,11
   818e8:	10a70f04 	addi	r2,r2,-25540
   818ec:	10800017 	ldw	r2,0(r2)
   818f0:	1000031e 	bne	r2,zero,81900 <waveplay_change_mode+0x78>
        DEMO_PRINTF("wave file open fail.\n");
   818f4:	010002b4 	movhi	r4,10
   818f8:	21073104 	addi	r4,r4,7364
   818fc:	008d8280 	call	8d828 <puts>

    //gWavePlay.szBuf = Fat_FileSize(gWavePlay.hFile);
    nSize = Fat_FileSize(gWavePlay.hFile);
   81900:	008002f4 	movhi	r2,11
   81904:	10a70f04 	addi	r2,r2,-25540
   81908:	10800017 	ldw	r2,0(r2)
   8190c:	1009883a 	mov	r4,r2
   81910:	0083cd80 	call	83cd8 <Fat_FileSize>
   81914:	e0bffc15 	stw	r2,-16(fp)

    if (gWavePlay.hFile){
   81918:	008002f4 	movhi	r2,11
   8191c:	10a70f04 	addi	r2,r2,-25540
   81920:	10800017 	ldw	r2,0(r2)
   81924:	10000e26 	beq	r2,zero,81960 <waveplay_change_mode+0xd8>
        bSuccess = Fat_FileRead(gWavePlay.hFile, gWavePlay.szBuf, WAVE_BUF_SIZE);
   81928:	008002f4 	movhi	r2,11
   8192c:	10a70f04 	addi	r2,r2,-25540
   81930:	10800017 	ldw	r2,0(r2)
   81934:	1009883a 	mov	r4,r2
   81938:	014002f4 	movhi	r5,11
   8193c:	29671004 	addi	r5,r5,-25536
   81940:	01808004 	movi	r6,512
   81944:	0083d1c0 	call	83d1c <Fat_FileRead>
   81948:	e0bffa15 	stw	r2,-24(fp)
        if (!bSuccess)
   8194c:	e0bffa17 	ldw	r2,-24(fp)
   81950:	1000031e 	bne	r2,zero,81960 <waveplay_change_mode+0xd8>
            DEMO_PRINTF("wave file read fail.\n");
   81954:	010002b4 	movhi	r4,10
   81958:	21073a04 	addi	r4,r4,7400
   8195c:	008d8280 	call	8d828 <puts>
    }

                        // check wave format
    if (bSuccess){
   81960:	e0bffa17 	ldw	r2,-24(fp)
   81964:	10005526 	beq	r2,zero,81abc <waveplay_change_mode+0x234>
            int sample_rate =  Wave_GetSampleRate(gWavePlay.szBuf, WAVE_BUF_SIZE);
   81968:	010002f4 	movhi	r4,11
   8196c:	21271004 	addi	r4,r4,-25536
   81970:	01408004 	movi	r5,512
   81974:	00879080 	call	87908 <Wave_GetSampleRate>
   81978:	e0bffd15 	stw	r2,-12(fp)
            if (WAVE_IsWaveFile(gWavePlay.szBuf, WAVE_BUF_SIZE) &&
   8197c:	010002f4 	movhi	r4,11
   81980:	21271004 	addi	r4,r4,-25536
   81984:	01408004 	movi	r5,512
   81988:	00877bc0 	call	877bc <WAVE_IsWaveFile>
   8198c:	10004a26 	beq	r2,zero,81ab8 <waveplay_change_mode+0x230>
                is_supporrted_sample_rate(sample_rate) &&
   81990:	e13ffd17 	ldw	r4,-12(fp)
   81994:	00806300 	call	80630 <is_supporrted_sample_rate>
    }

                        // check wave format
    if (bSuccess){
            int sample_rate =  Wave_GetSampleRate(gWavePlay.szBuf, WAVE_BUF_SIZE);
            if (WAVE_IsWaveFile(gWavePlay.szBuf, WAVE_BUF_SIZE) &&
   81998:	10004726 	beq	r2,zero,81ab8 <waveplay_change_mode+0x230>
                is_supporrted_sample_rate(sample_rate) &&
                Wave_GetChannelNum(gWavePlay.szBuf, WAVE_BUF_SIZE)==2 &&
   8199c:	010002f4 	movhi	r4,11
   819a0:	21271004 	addi	r4,r4,-25536
   819a4:	01408004 	movi	r5,512
   819a8:	008799c0 	call	8799c <Wave_GetChannelNum>

                        // check wave format
    if (bSuccess){
            int sample_rate =  Wave_GetSampleRate(gWavePlay.szBuf, WAVE_BUF_SIZE);
            if (WAVE_IsWaveFile(gWavePlay.szBuf, WAVE_BUF_SIZE) &&
                is_supporrted_sample_rate(sample_rate) &&
   819ac:	10800098 	cmpnei	r2,r2,2
   819b0:	1000411e 	bne	r2,zero,81ab8 <waveplay_change_mode+0x230>
                Wave_GetChannelNum(gWavePlay.szBuf, WAVE_BUF_SIZE)==2 &&
                Wave_GetSampleBitNum(gWavePlay.szBuf, WAVE_BUF_SIZE)==16){
   819b4:	010002f4 	movhi	r4,11
   819b8:	21271004 	addi	r4,r4,-25536
   819bc:	01408004 	movi	r5,512
   819c0:	0087a1c0 	call	87a1c <Wave_GetSampleBitNum>
                        // check wave format
    if (bSuccess){
            int sample_rate =  Wave_GetSampleRate(gWavePlay.szBuf, WAVE_BUF_SIZE);
            if (WAVE_IsWaveFile(gWavePlay.szBuf, WAVE_BUF_SIZE) &&
                is_supporrted_sample_rate(sample_rate) &&
                Wave_GetChannelNum(gWavePlay.szBuf, WAVE_BUF_SIZE)==2 &&
   819c4:	10800418 	cmpnei	r2,r2,16
   819c8:	10003b1e 	bne	r2,zero,81ab8 <waveplay_change_mode+0x230>
                Wave_GetSampleBitNum(gWavePlay.szBuf, WAVE_BUF_SIZE)==16){


                //gWavePlay.uWavePlayPos = gWavePlay.uWavePlayPos+Wave_GetWaveOffset(gWavePlay.szBuf, WAVE_BUF_SIZE);
                gWavePlay.uWaveMaxPlayPos = gWavePlay.uWavePlayPos + Wave_GetDataByteSize(gWavePlay.szBuf, WAVE_BUF_SIZE);
   819cc:	008002f4 	movhi	r2,11
   819d0:	10a70f04 	addi	r2,r2,-25540
   819d4:	14008317 	ldw	r16,524(r2)
   819d8:	010002f4 	movhi	r4,11
   819dc:	21271004 	addi	r4,r4,-25536
   819e0:	01408004 	movi	r5,512
   819e4:	0087a9c0 	call	87a9c <Wave_GetDataByteSize>
   819e8:	8087883a 	add	r3,r16,r2
   819ec:	008002f4 	movhi	r2,11
   819f0:	10a70f04 	addi	r2,r2,-25540
   819f4:	10c08415 	stw	r3,528(r2)

                DEMO_PRINTF("test.\n");
   819f8:	010002b4 	movhi	r4,10
   819fc:	2107a404 	addi	r4,r4,7824
   81a00:	008d8280 	call	8d828 <puts>
                // setup sample rate
                AUDIO_InterfaceActive(FALSE);
   81a04:	0009883a 	mov	r4,zero
   81a08:	0085e9c0 	call	85e9c <AUDIO_InterfaceActive>
                if (sample_rate == 96000)
   81a0c:	e0fffd17 	ldw	r3,-12(fp)
   81a10:	00800074 	movhi	r2,1
   81a14:	109dc004 	addi	r2,r2,30464
   81a18:	1880031e 	bne	r3,r2,81a28 <waveplay_change_mode+0x1a0>
                    AUDIO_SetSampleRate(RATE_ADC96K_DAC96K);
   81a1c:	01000144 	movi	r4,5
   81a20:	00863ec0 	call	863ec <AUDIO_SetSampleRate>
   81a24:	00001c06 	br	81a98 <waveplay_change_mode+0x210>
                else if (sample_rate == 48000)
   81a28:	e0fffd17 	ldw	r3,-12(fp)
   81a2c:	00aee014 	movui	r2,48000
   81a30:	1880031e 	bne	r3,r2,81a40 <waveplay_change_mode+0x1b8>
                    AUDIO_SetSampleRate(RATE_ADC48K_DAC48K);
   81a34:	0009883a 	mov	r4,zero
   81a38:	00863ec0 	call	863ec <AUDIO_SetSampleRate>
   81a3c:	00001606 	br	81a98 <waveplay_change_mode+0x210>
                else if (sample_rate == 44100)
   81a40:	e0fffd17 	ldw	r3,-12(fp)
   81a44:	00ab1114 	movui	r2,44100
   81a48:	1880031e 	bne	r3,r2,81a58 <waveplay_change_mode+0x1d0>
                    AUDIO_SetSampleRate(RATE_ADC44K1_DAC44K1);
   81a4c:	01000184 	movi	r4,6
   81a50:	00863ec0 	call	863ec <AUDIO_SetSampleRate>
   81a54:	00001006 	br	81a98 <waveplay_change_mode+0x210>
                else if (sample_rate == 32000)
   81a58:	e0bffd17 	ldw	r2,-12(fp)
   81a5c:	109f4018 	cmpnei	r2,r2,32000
   81a60:	1000031e 	bne	r2,zero,81a70 <waveplay_change_mode+0x1e8>
                    AUDIO_SetSampleRate(RATE_ADC32K_DAC32K);
   81a64:	01000104 	movi	r4,4
   81a68:	00863ec0 	call	863ec <AUDIO_SetSampleRate>
   81a6c:	00000a06 	br	81a98 <waveplay_change_mode+0x210>
                else if (sample_rate == 8000)
   81a70:	e0bffd17 	ldw	r2,-12(fp)
   81a74:	1087d018 	cmpnei	r2,r2,8000
   81a78:	1000031e 	bne	r2,zero,81a88 <waveplay_change_mode+0x200>
                    AUDIO_SetSampleRate(RATE_ADC8K_DAC8K);
   81a7c:	010000c4 	movi	r4,3
   81a80:	00863ec0 	call	863ec <AUDIO_SetSampleRate>
   81a84:	00000406 	br	81a98 <waveplay_change_mode+0x210>
                else
                    DEMO_PRINTF("unsupported sample rate=%d\n", sample_rate);
   81a88:	010002b4 	movhi	r4,10
   81a8c:	21076704 	addi	r4,r4,7580
   81a90:	e17ffd17 	ldw	r5,-12(fp)
   81a94:	008d7140 	call	8d714 <printf>
                AUDIO_FifoClear();
   81a98:	00869fc0 	call	869fc <AUDIO_FifoClear>
                AUDIO_InterfaceActive(TRUE);
   81a9c:	01000044 	movi	r4,1
   81aa0:	0085e9c0 	call	85e9c <AUDIO_InterfaceActive>


                DEMO_PRINTF("sample rate=%d\n", sample_rate);
   81aa4:	010002b4 	movhi	r4,10
   81aa8:	21076e04 	addi	r4,r4,7608
   81aac:	e17ffd17 	ldw	r5,-12(fp)
   81ab0:	008d7140 	call	8d714 <printf>
   81ab4:	00000106 	br	81abc <waveplay_change_mode+0x234>
            }else{
                bSuccess = FALSE;
   81ab8:	e03ffa15 	stw	zero,-24(fp)
            }
    }

    if (!bSuccess)
   81abc:	e0bffa17 	ldw	r2,-24(fp)
   81ac0:	1000011e 	bne	r2,zero,81ac8 <waveplay_change_mode+0x240>
        waveplay_stop();
   81ac4:	00823440 	call	82344 <waveplay_stop>

    return bSuccess;
   81ac8:	e0bffa17 	ldw	r2,-24(fp)
}
   81acc:	e6ffff04 	addi	sp,fp,-4
   81ad0:	dfc00217 	ldw	ra,8(sp)
   81ad4:	df000117 	ldw	fp,4(sp)
   81ad8:	dc000017 	ldw	r16,0(sp)
   81adc:	dec00304 	addi	sp,sp,12
   81ae0:	f800283a 	ret

00081ae4 <waveplay_execute>:

bool waveplay_execute(bool *bEOF){
   81ae4:	deffe904 	addi	sp,sp,-92
   81ae8:	dfc01615 	stw	ra,88(sp)
   81aec:	df001515 	stw	fp,84(sp)
   81af0:	dc001415 	stw	r16,80(sp)
   81af4:	df001504 	addi	fp,sp,84
   81af8:	e13ffe15 	stw	r4,-8(fp)
    bool bSuccess = TRUE;
   81afc:	00800044 	movi	r2,1
   81b00:	e0bfeb15 	stw	r2,-84(fp)
    bool bDataReady = FALSE;
   81b04:	e03fec15 	stw	zero,-80(fp)


    // end of play data !
    if (gWavePlay.uWavePlayPos >= gWavePlay.uWaveMaxPlayPos){
   81b08:	008002f4 	movhi	r2,11
   81b0c:	10a70f04 	addi	r2,r2,-25540
   81b10:	10c08317 	ldw	r3,524(r2)
   81b14:	008002f4 	movhi	r2,11
   81b18:	10a70f04 	addi	r2,r2,-25540
   81b1c:	10808417 	ldw	r2,528(r2)
   81b20:	18800c36 	bltu	r3,r2,81b54 <waveplay_execute+0x70>
    	DEMO_PRINTF("song finished\n");
   81b24:	010002b4 	movhi	r4,10
   81b28:	2107a604 	addi	r4,r4,7832
   81b2c:	008d8280 	call	8d828 <puts>
        *bEOF = TRUE;
   81b30:	e0bffe17 	ldw	r2,-8(fp)
   81b34:	00c00044 	movi	r3,1
   81b38:	10c00015 	stw	r3,0(r2)
        IOWR(SCORER_0_BASE, 3, 0xFF);
   81b3c:	00c03fc4 	movi	r3,255
   81b40:	00a00314 	movui	r2,32780
   81b44:	10c00035 	stwio	r3,0(r2)
        bKaraoke = FALSE;
   81b48:	d0279315 	stw	zero,-25012(gp)
        return TRUE;
   81b4c:	00800044 	movi	r2,1
   81b50:	0001f606 	br	8232c <waveplay_execute+0x848>
    }

    //
    *bEOF = FALSE;
   81b54:	e0bffe17 	ldw	r2,-8(fp)
   81b58:	10000015 	stw	zero,0(r2)
    while (!bDataReady && bSuccess){
   81b5c:	0000b806 	br	81e40 <waveplay_execute+0x35c>
    	if(bKaraoke){
   81b60:	d0a79317 	ldw	r2,-25012(gp)
   81b64:	10007926 	beq	r2,zero,81d4c <waveplay_execute+0x268>
    		if ((gWavePlay.uWavePlayPos < gWavePlay.uWaveReadPos)){
   81b68:	008002f4 	movhi	r2,11
   81b6c:	10a70f04 	addi	r2,r2,-25540
   81b70:	10c08317 	ldw	r3,524(r2)
   81b74:	008002f4 	movhi	r2,11
   81b78:	10a70f04 	addi	r2,r2,-25540
   81b7c:	10808217 	ldw	r2,520(r2)
   81b80:	18803e2e 	bgeu	r3,r2,81c7c <waveplay_execute+0x198>
    			if(gWavePlay_vocal.uWavePlayPos < gWavePlay_vocal.uWaveReadPos){
   81b84:	008002f4 	movhi	r2,11
   81b88:	10a79f04 	addi	r2,r2,-24964
   81b8c:	10c08317 	ldw	r3,524(r2)
   81b90:	008002f4 	movhi	r2,11
   81b94:	10a79f04 	addi	r2,r2,-24964
   81b98:	10808217 	ldw	r2,520(r2)
   81b9c:	1880032e 	bgeu	r3,r2,81bac <waveplay_execute+0xc8>
    				bDataReady = TRUE;
   81ba0:	00800044 	movi	r2,1
   81ba4:	e0bfec15 	stw	r2,-80(fp)
   81ba8:	0000a506 	br	81e40 <waveplay_execute+0x35c>
    				//DEBUG_PRINTF("it is not neccessary to read data from sd-card\r\n");
    			}else{
    				int read_size = WAVE_BUF_SIZE;
   81bac:	00808004 	movi	r2,512
   81bb0:	e0bfed15 	stw	r2,-76(fp)
					if (read_size > (gWavePlay_vocal.uWaveMaxPlayPos - gWavePlay_vocal.uWavePlayPos))
   81bb4:	e0ffed17 	ldw	r3,-76(fp)
   81bb8:	008002f4 	movhi	r2,11
   81bbc:	10a79f04 	addi	r2,r2,-24964
   81bc0:	11008417 	ldw	r4,528(r2)
   81bc4:	008002f4 	movhi	r2,11
   81bc8:	10a79f04 	addi	r2,r2,-24964
   81bcc:	10808317 	ldw	r2,524(r2)
   81bd0:	2085c83a 	sub	r2,r4,r2
   81bd4:	10c0082e 	bgeu	r2,r3,81bf8 <waveplay_execute+0x114>
						read_size = gWavePlay_vocal.uWaveMaxPlayPos - gWavePlay_vocal.uWavePlayPos;
   81bd8:	008002f4 	movhi	r2,11
   81bdc:	10a79f04 	addi	r2,r2,-24964
   81be0:	10c08417 	ldw	r3,528(r2)
   81be4:	008002f4 	movhi	r2,11
   81be8:	10a79f04 	addi	r2,r2,-24964
   81bec:	10808317 	ldw	r2,524(r2)
   81bf0:	1885c83a 	sub	r2,r3,r2
   81bf4:	e0bfed15 	stw	r2,-76(fp)
					bSuccess = Fat_FileRead(gWavePlay_vocal.hFile, gWavePlay_vocal.szBuf, read_size);
   81bf8:	008002f4 	movhi	r2,11
   81bfc:	10a79f04 	addi	r2,r2,-24964
   81c00:	10800017 	ldw	r2,0(r2)
   81c04:	1009883a 	mov	r4,r2
   81c08:	014002f4 	movhi	r5,11
   81c0c:	2967a004 	addi	r5,r5,-24960
   81c10:	e1bfed17 	ldw	r6,-76(fp)
   81c14:	0083d1c0 	call	83d1c <Fat_FileRead>
   81c18:	e0bfeb15 	stw	r2,-84(fp)
					if (bSuccess)
   81c1c:	e0bfeb17 	ldw	r2,-84(fp)
   81c20:	10000926 	beq	r2,zero,81c48 <waveplay_execute+0x164>
						gWavePlay_vocal.uWaveReadPos += read_size;
   81c24:	008002f4 	movhi	r2,11
   81c28:	10a79f04 	addi	r2,r2,-24964
   81c2c:	10c08217 	ldw	r3,520(r2)
   81c30:	e0bfed17 	ldw	r2,-76(fp)
   81c34:	1887883a 	add	r3,r3,r2
   81c38:	008002f4 	movhi	r2,11
   81c3c:	10a79f04 	addi	r2,r2,-24964
   81c40:	10c08215 	stw	r3,520(r2)
   81c44:	00004006 	br	81d48 <waveplay_execute+0x264>
					else
						DEMO_PRINTF("[APP](vocal)sdcard read fail, read_pos:%ld, read_size:%d, max_play_pos:%ld !\r\n", gWavePlay_vocal.uWaveReadPos, read_size, gWavePlay_vocal.uWaveMaxPlayPos);
   81c48:	008002f4 	movhi	r2,11
   81c4c:	10a79f04 	addi	r2,r2,-24964
   81c50:	10c08217 	ldw	r3,520(r2)
   81c54:	008002f4 	movhi	r2,11
   81c58:	10a79f04 	addi	r2,r2,-24964
   81c5c:	10808417 	ldw	r2,528(r2)
   81c60:	010002b4 	movhi	r4,10
   81c64:	2107aa04 	addi	r4,r4,7848
   81c68:	180b883a 	mov	r5,r3
   81c6c:	e1bfed17 	ldw	r6,-76(fp)
   81c70:	100f883a 	mov	r7,r2
   81c74:	008d7140 	call	8d714 <printf>
   81c78:	00007106 	br	81e40 <waveplay_execute+0x35c>
					DEMO_PRINTF("(vocal)gWavePlay.uWaveMaxPlayPos:%x\n",gWavePlay_vocal.uWaveMaxPlayPos);
					DEMO_PRINTF("(vocal)gWavePlay.uWaveReadPos:%x\n",gWavePlay_vocal.uWaveReadPos);
					*/
    			}
			}else{
				int read_size = WAVE_BUF_SIZE;
   81c7c:	00808004 	movi	r2,512
   81c80:	e0bfee15 	stw	r2,-72(fp)
				if (read_size > (gWavePlay.uWaveMaxPlayPos - gWavePlay.uWavePlayPos))
   81c84:	e0ffee17 	ldw	r3,-72(fp)
   81c88:	008002f4 	movhi	r2,11
   81c8c:	10a70f04 	addi	r2,r2,-25540
   81c90:	11008417 	ldw	r4,528(r2)
   81c94:	008002f4 	movhi	r2,11
   81c98:	10a70f04 	addi	r2,r2,-25540
   81c9c:	10808317 	ldw	r2,524(r2)
   81ca0:	2085c83a 	sub	r2,r4,r2
   81ca4:	10c0082e 	bgeu	r2,r3,81cc8 <waveplay_execute+0x1e4>
					read_size = gWavePlay.uWaveMaxPlayPos - gWavePlay.uWavePlayPos;
   81ca8:	008002f4 	movhi	r2,11
   81cac:	10a70f04 	addi	r2,r2,-25540
   81cb0:	10c08417 	ldw	r3,528(r2)
   81cb4:	008002f4 	movhi	r2,11
   81cb8:	10a70f04 	addi	r2,r2,-25540
   81cbc:	10808317 	ldw	r2,524(r2)
   81cc0:	1885c83a 	sub	r2,r3,r2
   81cc4:	e0bfee15 	stw	r2,-72(fp)
				bSuccess = Fat_FileRead(gWavePlay.hFile, gWavePlay.szBuf, read_size);
   81cc8:	008002f4 	movhi	r2,11
   81ccc:	10a70f04 	addi	r2,r2,-25540
   81cd0:	10800017 	ldw	r2,0(r2)
   81cd4:	1009883a 	mov	r4,r2
   81cd8:	014002f4 	movhi	r5,11
   81cdc:	29671004 	addi	r5,r5,-25536
   81ce0:	e1bfee17 	ldw	r6,-72(fp)
   81ce4:	0083d1c0 	call	83d1c <Fat_FileRead>
   81ce8:	e0bfeb15 	stw	r2,-84(fp)
				if (bSuccess)
   81cec:	e0bfeb17 	ldw	r2,-84(fp)
   81cf0:	10000926 	beq	r2,zero,81d18 <waveplay_execute+0x234>
					gWavePlay.uWaveReadPos += read_size;
   81cf4:	008002f4 	movhi	r2,11
   81cf8:	10a70f04 	addi	r2,r2,-25540
   81cfc:	10c08217 	ldw	r3,520(r2)
   81d00:	e0bfee17 	ldw	r2,-72(fp)
   81d04:	1887883a 	add	r3,r3,r2
   81d08:	008002f4 	movhi	r2,11
   81d0c:	10a70f04 	addi	r2,r2,-25540
   81d10:	10c08215 	stw	r3,520(r2)
   81d14:	00000c06 	br	81d48 <waveplay_execute+0x264>
				else
					DEMO_PRINTF("[APP]sdcard read fail, read_pos:%ld, read_size:%d, max_play_pos:%ld !\r\n", gWavePlay.uWaveReadPos, read_size, gWavePlay.uWaveMaxPlayPos);
   81d18:	008002f4 	movhi	r2,11
   81d1c:	10a70f04 	addi	r2,r2,-25540
   81d20:	10c08217 	ldw	r3,520(r2)
   81d24:	008002f4 	movhi	r2,11
   81d28:	10a70f04 	addi	r2,r2,-25540
   81d2c:	10808417 	ldw	r2,528(r2)
   81d30:	010002b4 	movhi	r4,10
   81d34:	2107be04 	addi	r4,r4,7928
   81d38:	180b883a 	mov	r5,r3
   81d3c:	e1bfee17 	ldw	r6,-72(fp)
   81d40:	100f883a 	mov	r7,r2
   81d44:	008d7140 	call	8d714 <printf>
   81d48:	00003d06 	br	81e40 <waveplay_execute+0x35c>
				DEMO_PRINTF("gWavePlay.uWaveMaxPlayPos:%x\n",gWavePlay.uWaveMaxPlayPos);
				DEMO_PRINTF("gWavePlay.uWaveReadPos:%x\n",gWavePlay.uWaveReadPos);
				*/
			}
    	}else{
    		if ((gWavePlay.uWavePlayPos < gWavePlay.uWaveReadPos)){
   81d4c:	008002f4 	movhi	r2,11
   81d50:	10a70f04 	addi	r2,r2,-25540
   81d54:	10c08317 	ldw	r3,524(r2)
   81d58:	008002f4 	movhi	r2,11
   81d5c:	10a70f04 	addi	r2,r2,-25540
   81d60:	10808217 	ldw	r2,520(r2)
   81d64:	1880032e 	bgeu	r3,r2,81d74 <waveplay_execute+0x290>
    			bDataReady = TRUE;
   81d68:	00800044 	movi	r2,1
   81d6c:	e0bfec15 	stw	r2,-80(fp)
   81d70:	00003306 	br	81e40 <waveplay_execute+0x35c>
				//DEBUG_PRINTF("it is not neccessary to read data from sd-card\r\n");
			}else{
				int read_size = WAVE_BUF_SIZE;
   81d74:	00808004 	movi	r2,512
   81d78:	e0bfef15 	stw	r2,-68(fp)
				if (read_size > (gWavePlay.uWaveMaxPlayPos - gWavePlay.uWavePlayPos))
   81d7c:	e0ffef17 	ldw	r3,-68(fp)
   81d80:	008002f4 	movhi	r2,11
   81d84:	10a70f04 	addi	r2,r2,-25540
   81d88:	11008417 	ldw	r4,528(r2)
   81d8c:	008002f4 	movhi	r2,11
   81d90:	10a70f04 	addi	r2,r2,-25540
   81d94:	10808317 	ldw	r2,524(r2)
   81d98:	2085c83a 	sub	r2,r4,r2
   81d9c:	10c0082e 	bgeu	r2,r3,81dc0 <waveplay_execute+0x2dc>
					read_size = gWavePlay.uWaveMaxPlayPos - gWavePlay.uWavePlayPos;
   81da0:	008002f4 	movhi	r2,11
   81da4:	10a70f04 	addi	r2,r2,-25540
   81da8:	10c08417 	ldw	r3,528(r2)
   81dac:	008002f4 	movhi	r2,11
   81db0:	10a70f04 	addi	r2,r2,-25540
   81db4:	10808317 	ldw	r2,524(r2)
   81db8:	1885c83a 	sub	r2,r3,r2
   81dbc:	e0bfef15 	stw	r2,-68(fp)
				bSuccess = Fat_FileRead(gWavePlay.hFile, gWavePlay.szBuf, read_size);
   81dc0:	008002f4 	movhi	r2,11
   81dc4:	10a70f04 	addi	r2,r2,-25540
   81dc8:	10800017 	ldw	r2,0(r2)
   81dcc:	1009883a 	mov	r4,r2
   81dd0:	014002f4 	movhi	r5,11
   81dd4:	29671004 	addi	r5,r5,-25536
   81dd8:	e1bfef17 	ldw	r6,-68(fp)
   81ddc:	0083d1c0 	call	83d1c <Fat_FileRead>
   81de0:	e0bfeb15 	stw	r2,-84(fp)
				if (bSuccess)
   81de4:	e0bfeb17 	ldw	r2,-84(fp)
   81de8:	10000926 	beq	r2,zero,81e10 <waveplay_execute+0x32c>
					gWavePlay.uWaveReadPos += read_size;
   81dec:	008002f4 	movhi	r2,11
   81df0:	10a70f04 	addi	r2,r2,-25540
   81df4:	10c08217 	ldw	r3,520(r2)
   81df8:	e0bfef17 	ldw	r2,-68(fp)
   81dfc:	1887883a 	add	r3,r3,r2
   81e00:	008002f4 	movhi	r2,11
   81e04:	10a70f04 	addi	r2,r2,-25540
   81e08:	10c08215 	stw	r3,520(r2)
   81e0c:	00000c06 	br	81e40 <waveplay_execute+0x35c>
				else
					DEMO_PRINTF("[APP]sdcard read fail, read_pos:%ld, read_size:%d, max_play_pos:%ld !\r\n", gWavePlay.uWaveReadPos, read_size, gWavePlay.uWaveMaxPlayPos);
   81e10:	008002f4 	movhi	r2,11
   81e14:	10a70f04 	addi	r2,r2,-25540
   81e18:	10c08217 	ldw	r3,520(r2)
   81e1c:	008002f4 	movhi	r2,11
   81e20:	10a70f04 	addi	r2,r2,-25540
   81e24:	10808417 	ldw	r2,528(r2)
   81e28:	010002b4 	movhi	r4,10
   81e2c:	2107be04 	addi	r4,r4,7928
   81e30:	180b883a 	mov	r5,r3
   81e34:	e1bfef17 	ldw	r6,-68(fp)
   81e38:	100f883a 	mov	r7,r2
   81e3c:	008d7140 	call	8d714 <printf>
        return TRUE;
    }

    //
    *bEOF = FALSE;
    while (!bDataReady && bSuccess){
   81e40:	e0bfec17 	ldw	r2,-80(fp)
   81e44:	1000021e 	bne	r2,zero,81e50 <waveplay_execute+0x36c>
   81e48:	e0bfeb17 	ldw	r2,-84(fp)
   81e4c:	103f441e 	bne	r2,zero,81b60 <__alt_mem_av_tri_s1_cfi_flash_0+0xfe081b60>
    	}

    } // while

    //
    if (bDataReady && bSuccess){
   81e50:	e0bfec17 	ldw	r2,-80(fp)
   81e54:	10013426 	beq	r2,zero,82328 <waveplay_execute+0x844>
   81e58:	e0bfeb17 	ldw	r2,-84(fp)
   81e5c:	10013226 	beq	r2,zero,82328 <waveplay_execute+0x844>
#ifdef DISPLAY_WAVE_POWER
        alt_u32 power_sum = 0, power;
   81e60:	e03ff015 	stw	zero,-64(fp)
#endif
        int play_size;
        short *pSample = (short *)(gWavePlay.szBuf + gWavePlay.uWavePlayPos%WAVE_BUF_SIZE);
   81e64:	008002f4 	movhi	r2,11
   81e68:	10a70f04 	addi	r2,r2,-25540
   81e6c:	10808317 	ldw	r2,524(r2)
   81e70:	10807fcc 	andi	r2,r2,511
   81e74:	10c00104 	addi	r3,r2,4
   81e78:	008002f4 	movhi	r2,11
   81e7c:	10a70f04 	addi	r2,r2,-25540
   81e80:	1885883a 	add	r2,r3,r2
   81e84:	e0bff115 	stw	r2,-60(fp)
        short *pSample_vocal;
        if(bKaraoke){
   81e88:	d0a79317 	ldw	r2,-25012(gp)
   81e8c:	10000926 	beq	r2,zero,81eb4 <waveplay_execute+0x3d0>
        	pSample_vocal = (short *)(gWavePlay_vocal.szBuf + gWavePlay_vocal.uWavePlayPos%WAVE_BUF_SIZE);
   81e90:	008002f4 	movhi	r2,11
   81e94:	10a79f04 	addi	r2,r2,-24964
   81e98:	10808317 	ldw	r2,524(r2)
   81e9c:	10807fcc 	andi	r2,r2,511
   81ea0:	10c00104 	addi	r3,r2,4
   81ea4:	008002f4 	movhi	r2,11
   81ea8:	10a79f04 	addi	r2,r2,-24964
   81eac:	1885883a 	add	r2,r3,r2
   81eb0:	e0bff215 	stw	r2,-56(fp)
        }
        int i = 0;
   81eb4:	e03ff315 	stw	zero,-52(fp)
        play_size = gWavePlay.uWaveReadPos - gWavePlay.uWavePlayPos;
   81eb8:	008002f4 	movhi	r2,11
   81ebc:	10a70f04 	addi	r2,r2,-25540
   81ec0:	10c08217 	ldw	r3,520(r2)
   81ec4:	008002f4 	movhi	r2,11
   81ec8:	10a70f04 	addi	r2,r2,-25540
   81ecc:	10808317 	ldw	r2,524(r2)
   81ed0:	1885c83a 	sub	r2,r3,r2
   81ed4:	e0bff415 	stw	r2,-48(fp)
        play_size = play_size/4*4;
   81ed8:	e0bff417 	ldw	r2,-48(fp)
   81edc:	1000010e 	bge	r2,zero,81ee4 <waveplay_execute+0x400>
   81ee0:	108000c4 	addi	r2,r2,3
   81ee4:	1005d0ba 	srai	r2,r2,2
   81ee8:	1085883a 	add	r2,r2,r2
   81eec:	1085883a 	add	r2,r2,r2
   81ef0:	e0bff415 	stw	r2,-48(fp)
        while(i < play_size){
   81ef4:	0000f906 	br	822dc <waveplay_execute+0x7f8>
            if(AUDIO_DacFifoNotFull()){ // if audio ready (not full)
   81ef8:	00868fc0 	call	868fc <AUDIO_DacFifoNotFull>
   81efc:	1000f726 	beq	r2,zero,822dc <waveplay_execute+0x7f8>
            	if(bKaraoke){
   81f00:	d0a79317 	ldw	r2,-25012(gp)
   81f04:	1000c926 	beq	r2,zero,8222c <waveplay_execute+0x748>
            		if(AUDIO_AdcFifoNotEmpty()){
   81f08:	00869780 	call	86978 <AUDIO_AdcFifoNotEmpty>
   81f0c:	1000f326 	beq	r2,zero,822dc <waveplay_execute+0x7f8>
						short ch_right, ch_left;
						short ch_right_vocal, ch_left_vocal;
						short ch_right_mic;
						short ch_left_mic;
						ch_left = *pSample++;
   81f10:	e0bff117 	ldw	r2,-60(fp)
   81f14:	10c00084 	addi	r3,r2,2
   81f18:	e0fff115 	stw	r3,-60(fp)
   81f1c:	1080000b 	ldhu	r2,0(r2)
   81f20:	e0bff50d 	sth	r2,-44(fp)
						ch_right = *pSample++;
   81f24:	e0bff117 	ldw	r2,-60(fp)
   81f28:	10c00084 	addi	r3,r2,2
   81f2c:	e0fff115 	stw	r3,-60(fp)
   81f30:	1080000b 	ldhu	r2,0(r2)
   81f34:	e0bff58d 	sth	r2,-42(fp)
						ch_left_vocal = *pSample_vocal++;
   81f38:	e0bff217 	ldw	r2,-56(fp)
   81f3c:	10c00084 	addi	r3,r2,2
   81f40:	e0fff215 	stw	r3,-56(fp)
   81f44:	1080000b 	ldhu	r2,0(r2)
   81f48:	e0bff60d 	sth	r2,-40(fp)
						ch_right_vocal = *pSample_vocal++;
   81f4c:	e0bff217 	ldw	r2,-56(fp)
   81f50:	10c00084 	addi	r3,r2,2
   81f54:	e0fff215 	stw	r3,-56(fp)
   81f58:	1080000b 	ldhu	r2,0(r2)
   81f5c:	e0bff68d 	sth	r2,-38(fp)
						AUDIO_AdcFifoGetData(&ch_left_mic, &ch_right_mic);
   81f60:	e0fffd84 	addi	r3,fp,-10
   81f64:	e0bffd04 	addi	r2,fp,-12
   81f68:	1809883a 	mov	r4,r3
   81f6c:	100b883a 	mov	r5,r2
   81f70:	00869b00 	call	869b0 <AUDIO_AdcFifoGetData>
#ifdef DISPLAY_WAVE_POWER  // indicate power by avg 64 sample
						power = abs(ch_left) + abs(ch_right);
   81f74:	e0bff50f 	ldh	r2,-44(fp)
   81f78:	1000010e 	bge	r2,zero,81f80 <waveplay_execute+0x49c>
   81f7c:	0085c83a 	sub	r2,zero,r2
   81f80:	1007883a 	mov	r3,r2
   81f84:	e0bff58f 	ldh	r2,-42(fp)
   81f88:	1000010e 	bge	r2,zero,81f90 <waveplay_execute+0x4ac>
   81f8c:	0085c83a 	sub	r2,zero,r2
   81f90:	1885883a 	add	r2,r3,r2
   81f94:	e0bff715 	stw	r2,-36(fp)
						power_sum += power;
   81f98:	e0fff017 	ldw	r3,-64(fp)
   81f9c:	e0bff717 	ldw	r2,-36(fp)
   81fa0:	1885883a 	add	r2,r3,r2
   81fa4:	e0bff015 	stw	r2,-64(fp)
						if ((i & 0x01F) == 0 && i != 0){
   81fa8:	e0bff317 	ldw	r2,-52(fp)
   81fac:	108007cc 	andi	r2,r2,31
   81fb0:	10000a1e 	bne	r2,zero,81fdc <waveplay_execute+0x4f8>
   81fb4:	e0bff317 	ldw	r2,-52(fp)
   81fb8:	10000826 	beq	r2,zero,81fdc <waveplay_execute+0x4f8>
							power = power_sum >> (6+7);  // 6: divide 64,  7: power scale
   81fbc:	e0bff017 	ldw	r2,-64(fp)
   81fc0:	1004d37a 	srli	r2,r2,13
   81fc4:	e0bff715 	stw	r2,-36(fp)
							led_display_count(power);
   81fc8:	e0bff717 	ldw	r2,-36(fp)
   81fcc:	10803fcc 	andi	r2,r2,255
   81fd0:	1009883a 	mov	r4,r2
   81fd4:	00805580 	call	80558 <led_display_count>
							power_sum = 0;
   81fd8:	e03ff015 	stw	zero,-64(fp)
						}
#endif
						int ch_vocal = (ch_left_vocal << 16)+ch_right_vocal;
   81fdc:	e0bff60f 	ldh	r2,-40(fp)
   81fe0:	1006943a 	slli	r3,r2,16
   81fe4:	e0bff68f 	ldh	r2,-38(fp)
   81fe8:	1885883a 	add	r2,r3,r2
   81fec:	e0bff815 	stw	r2,-32(fp)
						int ch_mic = (ch_left_mic << 16)+ch_right_mic;
   81ff0:	e0bffd8b 	ldhu	r2,-10(fp)
   81ff4:	10bfffcc 	andi	r2,r2,65535
   81ff8:	10a0001c 	xori	r2,r2,32768
   81ffc:	10a00004 	addi	r2,r2,-32768
   82000:	1006943a 	slli	r3,r2,16
   82004:	e0bffd0b 	ldhu	r2,-12(fp)
   82008:	10bfffcc 	andi	r2,r2,65535
   8200c:	10a0001c 	xori	r2,r2,32768
   82010:	10a00004 	addi	r2,r2,-32768
   82014:	1885883a 	add	r2,r3,r2
   82018:	e0bff915 	stw	r2,-28(fp)
						if(counter_ch==20000){
   8201c:	d0a78f17 	ldw	r2,-25028(gp)
   82020:	10938818 	cmpnei	r2,r2,20000
   82024:	1000061e 	bne	r2,zero,82040 <waveplay_execute+0x55c>
							//DEMO_PRINTF("ch_left_mic:%d\n",ch_left_mic);
							//DEMO_PRINTF("ch_right_mic:%d\n",ch_right_mic);
							update_status();
   82028:	00803900 	call	80390 <update_status>
							counter_ch = 0;
   8202c:	d0278f15 	stw	zero,-25028(gp)
							counter_ch ++;
   82030:	d0a78f17 	ldw	r2,-25028(gp)
   82034:	10800044 	addi	r2,r2,1
   82038:	d0a78f15 	stw	r2,-25028(gp)
   8203c:	00000306 	br	8204c <waveplay_execute+0x568>
						}else{
							counter_ch ++;
   82040:	d0a78f17 	ldw	r2,-25028(gp)
   82044:	10800044 	addi	r2,r2,1
   82048:	d0a78f15 	stw	r2,-25028(gp)
						}
						if(scorer_pointer==2048){
   8204c:	d0a79617 	ldw	r2,-25000(gp)
   82050:	10820018 	cmpnei	r2,r2,2048
   82054:	1000051e 	bne	r2,zero,8206c <waveplay_execute+0x588>
							alt_32 mask_score = 0x0000FFFF << 16;
   82058:	00bffff4 	movhi	r2,65535
   8205c:	e0bffa15 	stw	r2,-24(fp)
							alt_32 mask_percent = 0x000003FF << 6;
   82060:	00bff014 	movui	r2,65472
   82064:	e0bffb15 	stw	r2,-20(fp)
							//alt_32 temp_read = IORD(SCORER_0_BASE,2);//score 31:16 percent 15:6
							//DEMO_PRINTF("temp_read:%x\n",temp_read);
							//percent = ((temp_read & mask_percent) >> 6);
							//score = ((temp_read & mask_score) >> 16);
							scorer_pointer = 0;
   82068:	d0279615 	stw	zero,-25000(gp)
							//score = score+1;

						}
						//q score
						ch_vocal_total += (abs(ch_left_vocal)+abs(ch_right_vocal))/2;
   8206c:	e0bff60f 	ldh	r2,-40(fp)
   82070:	1000010e 	bge	r2,zero,82078 <waveplay_execute+0x594>
   82074:	0085c83a 	sub	r2,zero,r2
   82078:	1007883a 	mov	r3,r2
   8207c:	e0bff68f 	ldh	r2,-38(fp)
   82080:	1000010e 	bge	r2,zero,82088 <waveplay_execute+0x5a4>
   82084:	0085c83a 	sub	r2,zero,r2
   82088:	1885883a 	add	r2,r3,r2
   8208c:	1006d7fa 	srli	r3,r2,31
   82090:	1885883a 	add	r2,r3,r2
   82094:	1005d07a 	srai	r2,r2,1
   82098:	1007883a 	mov	r3,r2
   8209c:	d0a79a17 	ldw	r2,-24984(gp)
   820a0:	1885883a 	add	r2,r3,r2
   820a4:	d0a79a15 	stw	r2,-24984(gp)
						ch_mic_total += (abs(ch_left_mic)+abs(ch_right_mic))/2;
   820a8:	e0bffd8b 	ldhu	r2,-10(fp)
   820ac:	10bfffcc 	andi	r2,r2,65535
   820b0:	10a0001c 	xori	r2,r2,32768
   820b4:	10a00004 	addi	r2,r2,-32768
   820b8:	1000010e 	bge	r2,zero,820c0 <waveplay_execute+0x5dc>
   820bc:	0085c83a 	sub	r2,zero,r2
   820c0:	1007883a 	mov	r3,r2
   820c4:	e0bffd0b 	ldhu	r2,-12(fp)
   820c8:	10bfffcc 	andi	r2,r2,65535
   820cc:	10a0001c 	xori	r2,r2,32768
   820d0:	10a00004 	addi	r2,r2,-32768
   820d4:	1000010e 	bge	r2,zero,820dc <waveplay_execute+0x5f8>
   820d8:	0085c83a 	sub	r2,zero,r2
   820dc:	1885883a 	add	r2,r3,r2
   820e0:	1006d7fa 	srli	r3,r2,31
   820e4:	1885883a 	add	r2,r3,r2
   820e8:	1005d07a 	srai	r2,r2,1
   820ec:	1007883a 	mov	r3,r2
   820f0:	d0a79b17 	ldw	r2,-24980(gp)
   820f4:	1885883a 	add	r2,r3,r2
   820f8:	d0a79b15 	stw	r2,-24980(gp)
							scorer_counter_total = 0;
							score_total++;
						}
						*/

						if(scorer_counter==100){
   820fc:	d0a79717 	ldw	r2,-24996(gp)
   82100:	10801918 	cmpnei	r2,r2,100
   82104:	1000301e 	bne	r2,zero,821c8 <waveplay_execute+0x6e4>
							if(abs(ch_vocal_total/100)>900){
   82108:	d0a79a17 	ldw	r2,-24984(gp)
   8210c:	1009883a 	mov	r4,r2
   82110:	01401904 	movi	r5,100
   82114:	008a1140 	call	8a114 <__divsi3>
   82118:	1000010e 	bge	r2,zero,82120 <waveplay_execute+0x63c>
   8211c:	0085c83a 	sub	r2,zero,r2
   82120:	1080e150 	cmplti	r2,r2,901
   82124:	1000251e 	bne	r2,zero,821bc <waveplay_execute+0x6d8>
								if(((ch_mic_total/100-ch_vocal_total/100)<1000)&&((ch_mic_total/100-ch_vocal_total/100)>-200)){
   82128:	d0a79b17 	ldw	r2,-24980(gp)
   8212c:	1009883a 	mov	r4,r2
   82130:	01401904 	movi	r5,100
   82134:	008a1140 	call	8a114 <__divsi3>
   82138:	1021883a 	mov	r16,r2
   8213c:	d0a79a17 	ldw	r2,-24984(gp)
   82140:	1009883a 	mov	r4,r2
   82144:	01401904 	movi	r5,100
   82148:	008a1140 	call	8a114 <__divsi3>
   8214c:	8085c83a 	sub	r2,r16,r2
   82150:	1080fa08 	cmpgei	r2,r2,1000
   82154:	10000f1e 	bne	r2,zero,82194 <waveplay_execute+0x6b0>
   82158:	d0a79b17 	ldw	r2,-24980(gp)
   8215c:	1009883a 	mov	r4,r2
   82160:	01401904 	movi	r5,100
   82164:	008a1140 	call	8a114 <__divsi3>
   82168:	1021883a 	mov	r16,r2
   8216c:	d0a79a17 	ldw	r2,-24984(gp)
   82170:	1009883a 	mov	r4,r2
   82174:	01401904 	movi	r5,100
   82178:	008a1140 	call	8a114 <__divsi3>
   8217c:	8085c83a 	sub	r2,r16,r2
   82180:	10bfce50 	cmplti	r2,r2,-199
   82184:	1000031e 	bne	r2,zero,82194 <waveplay_execute+0x6b0>
									score++;
   82188:	d0a79517 	ldw	r2,-25004(gp)
   8218c:	10800044 	addi	r2,r2,1
   82190:	d0a79515 	stw	r2,-25004(gp)
								}
								score_total++;
   82194:	d0a79917 	ldw	r2,-24988(gp)
   82198:	10800044 	addi	r2,r2,1
   8219c:	d0a79915 	stw	r2,-24988(gp)
								percent = (score*1000/score_total);
   821a0:	d0a79517 	ldw	r2,-25004(gp)
   821a4:	10c0fa24 	muli	r3,r2,1000
   821a8:	d0a79917 	ldw	r2,-24988(gp)
   821ac:	1809883a 	mov	r4,r3
   821b0:	100b883a 	mov	r5,r2
   821b4:	008a1140 	call	8a114 <__divsi3>
   821b8:	d0a79415 	stw	r2,-25008(gp)
							}
							//DEMO_PRINTF("ratio:%e\n",ratio);
							scorer_counter = 0;
   821bc:	d0279715 	stw	zero,-24996(gp)
							ch_mic_total = 0;
   821c0:	d0279b15 	stw	zero,-24980(gp)
							ch_vocal_total = 0;
   821c4:	d0279a15 	stw	zero,-24984(gp)
						if(counter_ch==10000){
							DEMO_PRINTF("write_vocal:%d\n",ch_left_vocal+ch_right_vocal);
							DEMO_PRINTF("read_vocal:%d\n",IORD(SCORER_0_BASE,1));
						}
						*/
						scorer_counter++;
   821c8:	d0a79717 	ldw	r2,-24996(gp)
   821cc:	10800044 	addi	r2,r2,1
   821d0:	d0a79715 	stw	r2,-24996(gp)
						scorer_pointer++;
   821d4:	d0a79617 	ldw	r2,-25000(gp)
   821d8:	10800044 	addi	r2,r2,1
   821dc:	d0a79615 	stw	r2,-25000(gp)
						/*
						short output_left = ch_left + ch_left_mic;
						short output_right = ch_right + ch_right_mic;
						*/
						//AUDIO_DacFifoSetData(ch_left, ch_right); // play wave
						AUDIO_DacFifoSetData(ch_left+ch_left_mic, ch_right+ch_right_mic); // play wave
   821e0:	e0bff50b 	ldhu	r2,-44(fp)
   821e4:	e0fffd8b 	ldhu	r3,-10(fp)
   821e8:	10c5883a 	add	r2,r2,r3
   821ec:	10ffffcc 	andi	r3,r2,65535
   821f0:	18e0001c 	xori	r3,r3,32768
   821f4:	18e00004 	addi	r3,r3,-32768
   821f8:	e0bff58b 	ldhu	r2,-42(fp)
   821fc:	e13ffd0b 	ldhu	r4,-12(fp)
   82200:	1105883a 	add	r2,r2,r4
   82204:	10bfffcc 	andi	r2,r2,65535
   82208:	10a0001c 	xori	r2,r2,32768
   8220c:	10a00004 	addi	r2,r2,-32768
   82210:	1809883a 	mov	r4,r3
   82214:	100b883a 	mov	r5,r2
   82218:	00869340 	call	86934 <AUDIO_DacFifoSetData>
						i+=4;
   8221c:	e0bff317 	ldw	r2,-52(fp)
   82220:	10800104 	addi	r2,r2,4
   82224:	e0bff315 	stw	r2,-52(fp)
   82228:	00002c06 	br	822dc <waveplay_execute+0x7f8>
            		}
            	}else{
            		short ch_right, ch_left;

					ch_left = *pSample++;
   8222c:	e0bff117 	ldw	r2,-60(fp)
   82230:	10c00084 	addi	r3,r2,2
   82234:	e0fff115 	stw	r3,-60(fp)
   82238:	1080000b 	ldhu	r2,0(r2)
   8223c:	e0bffc0d 	sth	r2,-16(fp)
					ch_right = *pSample++;
   82240:	e0bff117 	ldw	r2,-60(fp)
   82244:	10c00084 	addi	r3,r2,2
   82248:	e0fff115 	stw	r3,-60(fp)
   8224c:	1080000b 	ldhu	r2,0(r2)
   82250:	e0bffc8d 	sth	r2,-14(fp)

#ifdef DISPLAY_WAVE_POWER  // indicate power by avg 64 sample
					power = abs(ch_left) + abs(ch_right);
   82254:	e0bffc0f 	ldh	r2,-16(fp)
   82258:	1000010e 	bge	r2,zero,82260 <waveplay_execute+0x77c>
   8225c:	0085c83a 	sub	r2,zero,r2
   82260:	1007883a 	mov	r3,r2
   82264:	e0bffc8f 	ldh	r2,-14(fp)
   82268:	1000010e 	bge	r2,zero,82270 <waveplay_execute+0x78c>
   8226c:	0085c83a 	sub	r2,zero,r2
   82270:	1885883a 	add	r2,r3,r2
   82274:	e0bff715 	stw	r2,-36(fp)
					power_sum += power;
   82278:	e0fff017 	ldw	r3,-64(fp)
   8227c:	e0bff717 	ldw	r2,-36(fp)
   82280:	1885883a 	add	r2,r3,r2
   82284:	e0bff015 	stw	r2,-64(fp)
					if ((i & 0x01F) == 0 && i != 0){
   82288:	e0bff317 	ldw	r2,-52(fp)
   8228c:	108007cc 	andi	r2,r2,31
   82290:	10000a1e 	bne	r2,zero,822bc <waveplay_execute+0x7d8>
   82294:	e0bff317 	ldw	r2,-52(fp)
   82298:	10000826 	beq	r2,zero,822bc <waveplay_execute+0x7d8>
						power = power_sum >> (6+7);  // 6: divide 64,  7: power scale
   8229c:	e0bff017 	ldw	r2,-64(fp)
   822a0:	1004d37a 	srli	r2,r2,13
   822a4:	e0bff715 	stw	r2,-36(fp)
						led_display_count(power);
   822a8:	e0bff717 	ldw	r2,-36(fp)
   822ac:	10803fcc 	andi	r2,r2,255
   822b0:	1009883a 	mov	r4,r2
   822b4:	00805580 	call	80558 <led_display_count>
						power_sum = 0;
   822b8:	e03ff015 	stw	zero,-64(fp)
					}
#endif

					AUDIO_DacFifoSetData(ch_left, ch_right); // play wave
   822bc:	e0fffc0f 	ldh	r3,-16(fp)
   822c0:	e0bffc8f 	ldh	r2,-14(fp)
   822c4:	1809883a 	mov	r4,r3
   822c8:	100b883a 	mov	r5,r2
   822cc:	00869340 	call	86934 <AUDIO_DacFifoSetData>
					i+=4;
   822d0:	e0bff317 	ldw	r2,-52(fp)
   822d4:	10800104 	addi	r2,r2,4
   822d8:	e0bff315 	stw	r2,-52(fp)
        	pSample_vocal = (short *)(gWavePlay_vocal.szBuf + gWavePlay_vocal.uWavePlayPos%WAVE_BUF_SIZE);
        }
        int i = 0;
        play_size = gWavePlay.uWaveReadPos - gWavePlay.uWavePlayPos;
        play_size = play_size/4*4;
        while(i < play_size){
   822dc:	e0fff317 	ldw	r3,-52(fp)
   822e0:	e0bff417 	ldw	r2,-48(fp)
   822e4:	18bf0416 	blt	r3,r2,81ef8 <__alt_mem_av_tri_s1_cfi_flash_0+0xfe081ef8>
					AUDIO_DacFifoSetData(ch_left, ch_right); // play wave
					i+=4;
            	}
            }
        } // while
        gWavePlay.uWavePlayPos += play_size;
   822e8:	008002f4 	movhi	r2,11
   822ec:	10a70f04 	addi	r2,r2,-25540
   822f0:	10c08317 	ldw	r3,524(r2)
   822f4:	e0bff417 	ldw	r2,-48(fp)
   822f8:	1887883a 	add	r3,r3,r2
   822fc:	008002f4 	movhi	r2,11
   82300:	10a70f04 	addi	r2,r2,-25540
   82304:	10c08315 	stw	r3,524(r2)
        gWavePlay_vocal.uWavePlayPos += play_size;
   82308:	008002f4 	movhi	r2,11
   8230c:	10a79f04 	addi	r2,r2,-24964
   82310:	10c08317 	ldw	r3,524(r2)
   82314:	e0bff417 	ldw	r2,-48(fp)
   82318:	1887883a 	add	r3,r3,r2
   8231c:	008002f4 	movhi	r2,11
   82320:	10a79f04 	addi	r2,r2,-24964
   82324:	10c08315 	stw	r3,524(r2)

    } //

    return bSuccess;
   82328:	e0bfeb17 	ldw	r2,-84(fp)
}
   8232c:	e6ffff04 	addi	sp,fp,-4
   82330:	dfc00217 	ldw	ra,8(sp)
   82334:	df000117 	ldw	fp,4(sp)
   82338:	dc000017 	ldw	r16,0(sp)
   8233c:	dec00304 	addi	sp,sp,12
   82340:	f800283a 	ret

00082344 <waveplay_stop>:

void waveplay_stop(void){
   82344:	deffff04 	addi	sp,sp,-4
   82348:	df000015 	stw	fp,0(sp)
   8234c:	d839883a 	mov	fp,sp
    /*if (gWavePlay.hFile.IsOpened){
        Fat_FileClose(&gWavePlay.hFile);
    }*/
}
   82350:	e037883a 	mov	sp,fp
   82354:	df000017 	ldw	fp,0(sp)
   82358:	dec00104 	addi	sp,sp,4
   8235c:	f800283a 	ret

00082360 <handle_key>:

/////////////////////////////////////////////////////////////////
/////////// Routing for button handle ///////////////////////////
/////////////////////////////////////////////////////////////////
// return true if next-song
void handle_key(bool *pNexSongPressed, bool *ChangePlayMode, bool *ChangeKaraoke){
   82360:	defff204 	addi	sp,sp,-56
   82364:	dfc00d15 	stw	ra,52(sp)
   82368:	df000c15 	stw	fp,48(sp)
   8236c:	df000c04 	addi	fp,sp,48
   82370:	e13ffd15 	stw	r4,-12(fp)
   82374:	e17ffe15 	stw	r5,-8(fp)
   82378:	e1bfff15 	stw	r6,-4(fp)

#ifdef SUPPORT_PLAY_MODE
    bool bRepeat;
    bool bPlayMode;
    bool PlayModechange;
    bRepeat = (IORD_ALTERA_AVALON_PIO_DATA(SW_BASE) & 0x01)?TRUE:FALSE;
   8237c:	00804034 	movhi	r2,256
   82380:	10804004 	addi	r2,r2,256
   82384:	10800037 	ldwio	r2,0(r2)
   82388:	1080004c 	andi	r2,r2,1
   8238c:	1004c03a 	cmpne	r2,r2,zero
   82390:	10803fcc 	andi	r2,r2,255
   82394:	e0bff515 	stw	r2,-44(fp)
    bPlayMode = (IORD_ALTERA_AVALON_PIO_DATA(SW_BASE) & 0x02)?TRUE:FALSE;
   82398:	00804034 	movhi	r2,256
   8239c:	10804004 	addi	r2,r2,256
   823a0:	10800037 	ldwio	r2,0(r2)
   823a4:	1080008c 	andi	r2,r2,2
   823a8:	1004c03a 	cmpne	r2,r2,zero
   823ac:	10803fcc 	andi	r2,r2,255
   823b0:	e0bff615 	stw	r2,-40(fp)
    if (bRepeat ^ gWavePlay.bRepeatMode){
   823b4:	008002f4 	movhi	r2,11
   823b8:	10a70f04 	addi	r2,r2,-25540
   823bc:	10c08e17 	ldw	r3,568(r2)
   823c0:	e0bff517 	ldw	r2,-44(fp)
   823c4:	18800526 	beq	r3,r2,823dc <handle_key+0x7c>
        gWavePlay.bRepeatMode = bRepeat;
   823c8:	008002f4 	movhi	r2,11
   823cc:	10a70f04 	addi	r2,r2,-25540
   823d0:	e0fff517 	ldw	r3,-44(fp)
   823d4:	10c08e15 	stw	r3,568(r2)
        update_status();
   823d8:	00803900 	call	80390 <update_status>
    }
    PlayModechange = bPlayMode ^ gWavePlay.bPlayMode;
   823dc:	008002f4 	movhi	r2,11
   823e0:	10a70f04 	addi	r2,r2,-25540
   823e4:	10c08f17 	ldw	r3,572(r2)
   823e8:	e0bff617 	ldw	r2,-40(fp)
   823ec:	1884f03a 	xor	r2,r3,r2
   823f0:	e0bff715 	stw	r2,-36(fp)
    if(PlayModechange){
   823f4:	e0bff717 	ldw	r2,-36(fp)
   823f8:	10001026 	beq	r2,zero,8243c <handle_key+0xdc>
    	gWavePlay.bPlayMode = bPlayMode;
   823fc:	008002f4 	movhi	r2,11
   82400:	10a70f04 	addi	r2,r2,-25540
   82404:	e0fff617 	ldw	r3,-40(fp)
   82408:	10c08f15 	stw	r3,572(r2)
    	if(bPlayMode)
   8240c:	e0bff617 	ldw	r2,-40(fp)
   82410:	10000426 	beq	r2,zero,82424 <handle_key+0xc4>
    		DEMO_PRINTF("change to bgm mode... \r\n");
   82414:	010002b4 	movhi	r4,10
   82418:	2107d004 	addi	r4,r4,8000
   8241c:	008d8280 	call	8d828 <puts>
   82420:	00000306 	br	82430 <handle_key+0xd0>
    	else{
    		DEMO_PRINTF("change to song mode... \r\n");
   82424:	010002b4 	movhi	r4,10
   82428:	2107d604 	addi	r4,r4,8024
   8242c:	008d8280 	call	8d828 <puts>
    	}
    	*ChangePlayMode = PlayModechange;
   82430:	e0bffe17 	ldw	r2,-8(fp)
   82434:	e0fff717 	ldw	r3,-36(fp)
   82438:	10c00015 	stw	r3,0(r2)
    }
#endif


    *pNexSongPressed = FALSE;
   8243c:	e0bffd17 	ldw	r2,-12(fp)
   82440:	10000015 	stw	zero,0(r2)
        return;
    }
    next_active_time = alt_nticks();
#endif

    button = IORD_ALTERA_AVALON_PIO_DATA(KEY_BASE);
   82444:	00804034 	movhi	r2,256
   82448:	10804404 	addi	r2,r2,272
   8244c:	10800037 	ldwio	r2,0(r2)
   82450:	e0bff805 	stb	r2,-32(fp)
    button = IORD_ALTERA_AVALON_PIO_EDGE_CAP(KEY_BASE);
   82454:	00804034 	movhi	r2,256
   82458:	10804704 	addi	r2,r2,284
   8245c:	10800037 	ldwio	r2,0(r2)
   82460:	e0bff805 	stb	r2,-32(fp)
    IOWR_ALTERA_AVALON_PIO_EDGE_CAP(KEY_BASE, 0); // clear flag
   82464:	0007883a 	mov	r3,zero
   82468:	00804034 	movhi	r2,256
   8246c:	10804704 	addi	r2,r2,284
   82470:	10c00035 	stwio	r3,0(r2)
    bNextSong = (button & 0x08)?TRUE:FALSE;
   82474:	e0bff803 	ldbu	r2,-32(fp)
   82478:	1080020c 	andi	r2,r2,8
   8247c:	1004c03a 	cmpne	r2,r2,zero
   82480:	10803fcc 	andi	r2,r2,255
   82484:	e0bff915 	stw	r2,-28(fp)
    bVolUp = (button & 0x04)?TRUE:FALSE;
   82488:	e0bff803 	ldbu	r2,-32(fp)
   8248c:	1080010c 	andi	r2,r2,4
   82490:	1004c03a 	cmpne	r2,r2,zero
   82494:	10803fcc 	andi	r2,r2,255
   82498:	e0bffa15 	stw	r2,-24(fp)
    bVolDown = (button & 0x02)?TRUE:FALSE;
   8249c:	e0bff803 	ldbu	r2,-32(fp)
   824a0:	1080008c 	andi	r2,r2,2
   824a4:	1004c03a 	cmpne	r2,r2,zero
   824a8:	10803fcc 	andi	r2,r2,255
   824ac:	e0bffb15 	stw	r2,-20(fp)
    bKaraokeChange = (button & 0x01)?TRUE:FALSE;
   824b0:	e0bff803 	ldbu	r2,-32(fp)
   824b4:	1080004c 	andi	r2,r2,1
   824b8:	1004c03a 	cmpne	r2,r2,zero
   824bc:	10803fcc 	andi	r2,r2,255
   824c0:	e0bffc15 	stw	r2,-16(fp)
    *ChangeKaraoke = bKaraokeChange;
   824c4:	e0bfff17 	ldw	r2,-4(fp)
   824c8:	e0fffc17 	ldw	r3,-16(fp)
   824cc:	10c00015 	stw	r3,0(r2)
    // adjust volument
    if ((bVolUp || bVolDown || bFirsTime2SetupVol || bKaraokeChange) && !bMuteSwitch){
   824d0:	e0bffa17 	ldw	r2,-24(fp)
   824d4:	1000061e 	bne	r2,zero,824f0 <handle_key+0x190>
   824d8:	e0bffb17 	ldw	r2,-20(fp)
   824dc:	1000041e 	bne	r2,zero,824f0 <handle_key+0x190>
   824e0:	d0a00117 	ldw	r2,-32764(gp)
   824e4:	1000021e 	bne	r2,zero,824f0 <handle_key+0x190>
   824e8:	e0bffc17 	ldw	r2,-16(fp)
   824ec:	10004826 	beq	r2,zero,82610 <handle_key+0x2b0>
   824f0:	d0a79217 	ldw	r2,-25016(gp)
   824f4:	1000461e 	bne	r2,zero,82610 <handle_key+0x2b0>
        nHwVol = gWavePlay.nVolume;
   824f8:	008002f4 	movhi	r2,11
   824fc:	10a70f04 	addi	r2,r2,-25540
   82500:	10808d03 	ldbu	r2,564(r2)
   82504:	10803fcc 	andi	r2,r2,255
   82508:	e0bff415 	stw	r2,-48(fp)
        if (bFirsTime2SetupVol){
   8250c:	d0a00117 	ldw	r2,-32764(gp)
   82510:	10000826 	beq	r2,zero,82534 <handle_key+0x1d4>
            bFirsTime2SetupVol = FALSE;
   82514:	d0200115 	stw	zero,-32764(gp)
            DEMO_PRINTF("current volume %d(%d-%d)\r\n", nHwVol, HW_MIN_VOL, HW_MAX_VOL);
   82518:	010002b4 	movhi	r4,10
   8251c:	2107dd04 	addi	r4,r4,8052
   82520:	e17ff417 	ldw	r5,-48(fp)
   82524:	01800bc4 	movi	r6,47
   82528:	01c01fc4 	movi	r7,127
   8252c:	008d7140 	call	8d714 <printf>
   82530:	00001b06 	br	825a0 <handle_key+0x240>
        }else if (bVolUp){
   82534:	e0bffa17 	ldw	r2,-24(fp)
   82538:	10000d26 	beq	r2,zero,82570 <handle_key+0x210>
            if (nHwVol < HW_MAX_VOL)
   8253c:	e0bff417 	ldw	r2,-48(fp)
   82540:	10801fc8 	cmpgei	r2,r2,127
   82544:	1000031e 	bne	r2,zero,82554 <handle_key+0x1f4>
                nHwVol++;
   82548:	e0bff417 	ldw	r2,-48(fp)
   8254c:	10800044 	addi	r2,r2,1
   82550:	e0bff415 	stw	r2,-48(fp)
            DEMO_PRINTF("volume up %d(%d-%d)\r\n", nHwVol, HW_MIN_VOL, HW_MAX_VOL);
   82554:	010002b4 	movhi	r4,10
   82558:	2107e404 	addi	r4,r4,8080
   8255c:	e17ff417 	ldw	r5,-48(fp)
   82560:	01800bc4 	movi	r6,47
   82564:	01c01fc4 	movi	r7,127
   82568:	008d7140 	call	8d714 <printf>
   8256c:	00000c06 	br	825a0 <handle_key+0x240>
        }else{
            if (nHwVol > HW_MIN_VOL)
   82570:	e0bff417 	ldw	r2,-48(fp)
   82574:	10800c10 	cmplti	r2,r2,48
   82578:	1000031e 	bne	r2,zero,82588 <handle_key+0x228>
                nHwVol--;
   8257c:	e0bff417 	ldw	r2,-48(fp)
   82580:	10bfffc4 	addi	r2,r2,-1
   82584:	e0bff415 	stw	r2,-48(fp)
            DEMO_PRINTF("volume down %d(%d-%d)\r\n", nHwVol, HW_MIN_VOL, HW_MAX_VOL);
   82588:	010002b4 	movhi	r4,10
   8258c:	2107ea04 	addi	r4,r4,8104
   82590:	e17ff417 	ldw	r5,-48(fp)
   82594:	01800bc4 	movi	r6,47
   82598:	01c01fc4 	movi	r7,127
   8259c:	008d7140 	call	8d714 <printf>
        }
        AUDIO_SetLineOutVol(nHwVol, nHwVol);
   825a0:	e0bff417 	ldw	r2,-48(fp)
   825a4:	10ffffcc 	andi	r3,r2,65535
   825a8:	e0bff417 	ldw	r2,-48(fp)
   825ac:	10bfffcc 	andi	r2,r2,65535
   825b0:	1809883a 	mov	r4,r3
   825b4:	100b883a 	mov	r5,r2
   825b8:	00865e00 	call	865e0 <AUDIO_SetLineOutVol>
        gWavePlay.nVolume = nHwVol;
   825bc:	e0bff417 	ldw	r2,-48(fp)
   825c0:	1007883a 	mov	r3,r2
   825c4:	008002f4 	movhi	r2,11
   825c8:	10a70f04 	addi	r2,r2,-25540
   825cc:	10c08d05 	stb	r3,564(r2)
        if(bKaraokeChange){
   825d0:	e0bffc17 	ldw	r2,-16(fp)
   825d4:	10000d26 	beq	r2,zero,8260c <handle_key+0x2ac>
        	bKaraoke = !bKaraoke;
   825d8:	d0a79317 	ldw	r2,-25012(gp)
   825dc:	1005003a 	cmpeq	r2,r2,zero
   825e0:	10803fcc 	andi	r2,r2,255
   825e4:	d0a79315 	stw	r2,-25012(gp)
        	if(bKaraoke){
   825e8:	d0a79317 	ldw	r2,-25012(gp)
   825ec:	10000426 	beq	r2,zero,82600 <handle_key+0x2a0>
        		DEMO_PRINTF("Start Karaoke...\r\n");
   825f0:	010002b4 	movhi	r4,10
   825f4:	2107f004 	addi	r4,r4,8128
   825f8:	008d8280 	call	8d828 <puts>
   825fc:	00000306 	br	8260c <handle_key+0x2ac>
        	}else{
        		DEMO_PRINTF("Stop Karaoke...\r\n");
   82600:	010002b4 	movhi	r4,10
   82604:	2107f504 	addi	r4,r4,8148
   82608:	008d8280 	call	8d828 <puts>
        	}
        }
        update_status();
   8260c:	00803900 	call	80390 <update_status>
    }


    if (bNextSong){
   82610:	e0bff917 	ldw	r2,-28(fp)
   82614:	10000626 	beq	r2,zero,82630 <handle_key+0x2d0>
        *pNexSongPressed = TRUE;
   82618:	e0bffd17 	ldw	r2,-12(fp)
   8261c:	00c00044 	movi	r3,1
   82620:	10c00015 	stw	r3,0(r2)
        DEMO_PRINTF("Play Next Song\r\n");
   82624:	010002b4 	movhi	r4,10
   82628:	2107fa04 	addi	r4,r4,8168
   8262c:	008d8280 	call	8d828 <puts>
    if (bNextSong || bVolUp || bVolDown){
        next_active_time +=  alt_ticks_per_second()/5;  // debounce
    }
#endif

}
   82630:	e037883a 	mov	sp,fp
   82634:	dfc00117 	ldw	ra,4(sp)
   82638:	df000017 	ldw	fp,0(sp)
   8263c:	dec00204 	addi	sp,sp,8
   82640:	f800283a 	ret

00082644 <IRDA_init>:
/////////// Routing for IrDA handle /////////////////////////////
/////////////////////////////////////////////////////////////////

//IRDA  initial
void IRDA_init()
{
   82644:	defffd04 	addi	sp,sp,-12
   82648:	dfc00215 	stw	ra,8(sp)
   8264c:	df000115 	stw	fp,4(sp)
   82650:	df000104 	addi	fp,sp,4
    alt_irq_register(TERASIC_IRDA_0_IRQ,0,handle_IrDA);            //irda irq register
   82654:	010001c4 	movi	r4,7
   82658:	000b883a 	mov	r5,zero
   8265c:	01800234 	movhi	r6,8
   82660:	3189a604 	addi	r6,r6,9880
   82664:	009b22c0 	call	9b22c <alt_irq_register>
   82668:	008001c4 	movi	r2,7
   8266c:	e0bfff15 	stw	r2,-4(fp)
  status &= ~NIOS2_STATUS_PIE_MSK;
  status |= (context & NIOS2_STATUS_PIE_MSK);
  
  NIOS2_WRITE_STATUS (status);
#else
  NIOS2_WRITE_STATUS (context);
   82670:	e0bfff17 	ldw	r2,-4(fp)
   82674:	1001703a 	wrctl	status,r2
    alt_irq_enable_all(TERASIC_IRDA_0_IRQ);
    IOWR(TERASIC_IRDA_0_BASE,0,0);
   82678:	0007883a 	mov	r3,zero
   8267c:	00805c04 	movi	r2,368
   82680:	10c00035 	stwio	r3,0(r2)
}
   82684:	e037883a 	mov	sp,fp
   82688:	dfc00117 	ldw	ra,4(sp)
   8268c:	df000017 	ldw	fp,0(sp)
   82690:	dec00204 	addi	sp,sp,8
   82694:	f800283a 	ret

00082698 <handle_IrDA>:

// return true if next-song
void handle_IrDA(bool * p,alt_u32 id){
   82698:	defff304 	addi	sp,sp,-52
   8269c:	dfc00c15 	stw	ra,48(sp)
   826a0:	df000b15 	stw	fp,44(sp)
   826a4:	df000b04 	addi	fp,sp,44
   826a8:	e13ffe15 	stw	r4,-8(fp)
   826ac:	e17fff15 	stw	r5,-4(fp)
    int nHwVol;


#ifdef SUPPORT_PLAY_MODE
    bool bRepeat;
    bRepeat = (IORD_ALTERA_AVALON_PIO_DATA(SW_BASE) & 0x01)?TRUE:FALSE;
   826b0:	00804034 	movhi	r2,256
   826b4:	10804004 	addi	r2,r2,256
   826b8:	10800037 	ldwio	r2,0(r2)
   826bc:	1080004c 	andi	r2,r2,1
   826c0:	1004c03a 	cmpne	r2,r2,zero
   826c4:	10803fcc 	andi	r2,r2,255
   826c8:	e0bff615 	stw	r2,-40(fp)
    if (bRepeat ^ gWavePlay.bRepeatMode){
   826cc:	008002f4 	movhi	r2,11
   826d0:	10a70f04 	addi	r2,r2,-25540
   826d4:	10c08e17 	ldw	r3,568(r2)
   826d8:	e0bff617 	ldw	r2,-40(fp)
   826dc:	18800526 	beq	r3,r2,826f4 <handle_IrDA+0x5c>
        gWavePlay.bRepeatMode = bRepeat;
   826e0:	008002f4 	movhi	r2,11
   826e4:	10a70f04 	addi	r2,r2,-25540
   826e8:	e0fff617 	ldw	r3,-40(fp)
   826ec:	10c08e15 	stw	r3,568(r2)
        update_status();
   826f0:	00803900 	call	80390 <update_status>
        return;
    }
    next_active_time = alt_nticks();
#endif

    button = IORD(TERASIC_IRDA_0_BASE,0);
   826f4:	00805c04 	movi	r2,368
   826f8:	10800037 	ldwio	r2,0(r2)
   826fc:	e0bff715 	stw	r2,-36(fp)
    button <<= 8;
   82700:	e0bff717 	ldw	r2,-36(fp)
   82704:	1004923a 	slli	r2,r2,8
   82708:	e0bff715 	stw	r2,-36(fp)
    button >>= 24;
   8270c:	e0bff717 	ldw	r2,-36(fp)
   82710:	1004d63a 	srli	r2,r2,24
   82714:	e0bff715 	stw	r2,-36(fp)
    IOWR_ALTERA_AVALON_PIO_EDGE_CAP(TERASIC_IRDA_0_BASE, 0); // clear flag
   82718:	0007883a 	mov	r3,zero
   8271c:	00805f04 	movi	r2,380
   82720:	10c00035 	stwio	r3,0(r2)

    IOWR(TERASIC_IRDA_0_BASE,0,0);
   82724:	0007883a 	mov	r3,zero
   82728:	00805c04 	movi	r2,368
   8272c:	10c00035 	stwio	r3,0(r2)
    bLastSong = (button == 0x1a) ? TRUE : FALSE;
   82730:	e0bff717 	ldw	r2,-36(fp)
   82734:	108006a0 	cmpeqi	r2,r2,26
   82738:	10803fcc 	andi	r2,r2,255
   8273c:	e0bff815 	stw	r2,-32(fp)
    bNextSong = (button == 0x1e) ? TRUE : FALSE;
   82740:	e0bff717 	ldw	r2,-36(fp)
   82744:	108007a0 	cmpeqi	r2,r2,30
   82748:	10803fcc 	andi	r2,r2,255
   8274c:	e0bff915 	stw	r2,-28(fp)
    bVolUp    = (button == 0x1b) ? TRUE : FALSE;
   82750:	e0bff717 	ldw	r2,-36(fp)
   82754:	108006e0 	cmpeqi	r2,r2,27
   82758:	10803fcc 	andi	r2,r2,255
   8275c:	e0bffa15 	stw	r2,-24(fp)
    bVolDown  = (button == 0x1f) ? TRUE : FALSE;
   82760:	e0bff717 	ldw	r2,-36(fp)
   82764:	108007e0 	cmpeqi	r2,r2,31
   82768:	10803fcc 	andi	r2,r2,255
   8276c:	e0bffb15 	stw	r2,-20(fp)
    bMute     = (button == 0x0c) ? TRUE : FALSE;
   82770:	e0bff717 	ldw	r2,-36(fp)
   82774:	10800320 	cmpeqi	r2,r2,12
   82778:	10803fcc 	andi	r2,r2,255
   8277c:	e0bffc15 	stw	r2,-16(fp)
    bPlay     = (button == 0x16) ? TRUE : FALSE;
   82780:	e0bff717 	ldw	r2,-36(fp)
   82784:	108005a0 	cmpeqi	r2,r2,22
   82788:	10803fcc 	andi	r2,r2,255
   8278c:	e0bffd15 	stw	r2,-12(fp)


    // adjust volument
    if ((bVolUp || bVolDown || bFirsTime2SetupVol) && !bMuteSwitch){
   82790:	e0bffa17 	ldw	r2,-24(fp)
   82794:	1000041e 	bne	r2,zero,827a8 <handle_IrDA+0x110>
   82798:	e0bffb17 	ldw	r2,-20(fp)
   8279c:	1000021e 	bne	r2,zero,827a8 <handle_IrDA+0x110>
   827a0:	d0a00217 	ldw	r2,-32760(gp)
   827a4:	10003926 	beq	r2,zero,8288c <handle_IrDA+0x1f4>
   827a8:	d0a79217 	ldw	r2,-25016(gp)
   827ac:	1000371e 	bne	r2,zero,8288c <handle_IrDA+0x1f4>
        nHwVol = gWavePlay.nVolume;
   827b0:	008002f4 	movhi	r2,11
   827b4:	10a70f04 	addi	r2,r2,-25540
   827b8:	10808d03 	ldbu	r2,564(r2)
   827bc:	10803fcc 	andi	r2,r2,255
   827c0:	e0bff515 	stw	r2,-44(fp)
        if (bFirsTime2SetupVol){
   827c4:	d0a00217 	ldw	r2,-32760(gp)
   827c8:	10000826 	beq	r2,zero,827ec <handle_IrDA+0x154>
            bFirsTime2SetupVol = FALSE;
   827cc:	d0200215 	stw	zero,-32760(gp)
            DEMO_PRINTF("current volume %d(%d-%d)\r\n", nHwVol, HW_MIN_VOL, HW_MAX_VOL);
   827d0:	010002b4 	movhi	r4,10
   827d4:	2107dd04 	addi	r4,r4,8052
   827d8:	e17ff517 	ldw	r5,-44(fp)
   827dc:	01800bc4 	movi	r6,47
   827e0:	01c01fc4 	movi	r7,127
   827e4:	008d7140 	call	8d714 <printf>
   827e8:	00001b06 	br	82858 <handle_IrDA+0x1c0>
        }else if (bVolUp){
   827ec:	e0bffa17 	ldw	r2,-24(fp)
   827f0:	10000d26 	beq	r2,zero,82828 <handle_IrDA+0x190>
            if (nHwVol < HW_MAX_VOL)
   827f4:	e0bff517 	ldw	r2,-44(fp)
   827f8:	10801fc8 	cmpgei	r2,r2,127
   827fc:	1000031e 	bne	r2,zero,8280c <handle_IrDA+0x174>
                nHwVol++;
   82800:	e0bff517 	ldw	r2,-44(fp)
   82804:	10800044 	addi	r2,r2,1
   82808:	e0bff515 	stw	r2,-44(fp)
            DEMO_PRINTF("volume up %d(%d-%d)\r\n", nHwVol, HW_MIN_VOL, HW_MAX_VOL);
   8280c:	010002b4 	movhi	r4,10
   82810:	2107e404 	addi	r4,r4,8080
   82814:	e17ff517 	ldw	r5,-44(fp)
   82818:	01800bc4 	movi	r6,47
   8281c:	01c01fc4 	movi	r7,127
   82820:	008d7140 	call	8d714 <printf>
   82824:	00000c06 	br	82858 <handle_IrDA+0x1c0>
        }else{
            if (nHwVol > HW_MIN_VOL)
   82828:	e0bff517 	ldw	r2,-44(fp)
   8282c:	10800c10 	cmplti	r2,r2,48
   82830:	1000031e 	bne	r2,zero,82840 <handle_IrDA+0x1a8>
                nHwVol--;
   82834:	e0bff517 	ldw	r2,-44(fp)
   82838:	10bfffc4 	addi	r2,r2,-1
   8283c:	e0bff515 	stw	r2,-44(fp)
            DEMO_PRINTF("volume down %d(%d-%d)\r\n", nHwVol, HW_MIN_VOL, HW_MAX_VOL);
   82840:	010002b4 	movhi	r4,10
   82844:	2107ea04 	addi	r4,r4,8104
   82848:	e17ff517 	ldw	r5,-44(fp)
   8284c:	01800bc4 	movi	r6,47
   82850:	01c01fc4 	movi	r7,127
   82854:	008d7140 	call	8d714 <printf>
        }
        AUDIO_SetLineOutVol(nHwVol, nHwVol);
   82858:	e0bff517 	ldw	r2,-44(fp)
   8285c:	10ffffcc 	andi	r3,r2,65535
   82860:	e0bff517 	ldw	r2,-44(fp)
   82864:	10bfffcc 	andi	r2,r2,65535
   82868:	1809883a 	mov	r4,r3
   8286c:	100b883a 	mov	r5,r2
   82870:	00865e00 	call	865e0 <AUDIO_SetLineOutVol>
        gWavePlay.nVolume = nHwVol;
   82874:	e0bff517 	ldw	r2,-44(fp)
   82878:	1007883a 	mov	r3,r2
   8287c:	008002f4 	movhi	r2,11
   82880:	10a70f04 	addi	r2,r2,-25540
   82884:	10c08d05 	stb	r3,564(r2)
        update_status();
   82888:	00803900 	call	80390 <update_status>
    }

    if (bLastSong){
   8288c:	e0bff817 	ldw	r2,-32(fp)
   82890:	10000526 	beq	r2,zero,828a8 <handle_IrDA+0x210>
        bLastSwitch = TRUE ;
   82894:	00800044 	movi	r2,1
   82898:	d0a79015 	stw	r2,-25024(gp)
        DEMO_PRINTF("Play Last Song\r\n");
   8289c:	010002b4 	movhi	r4,10
   828a0:	2107fe04 	addi	r4,r4,8184
   828a4:	008d8280 	call	8d828 <puts>
    }
    if (bNextSong){
   828a8:	e0bff917 	ldw	r2,-28(fp)
   828ac:	10000526 	beq	r2,zero,828c4 <handle_IrDA+0x22c>
        bNextSwitch = TRUE ;
   828b0:	00800044 	movi	r2,1
   828b4:	d0a79115 	stw	r2,-25020(gp)
        DEMO_PRINTF("Play Next Song\r\n");
   828b8:	010002b4 	movhi	r4,10
   828bc:	2107fa04 	addi	r4,r4,8168
   828c0:	008d8280 	call	8d828 <puts>
    }

    if(bMute){
   828c4:	e0bffc17 	ldw	r2,-16(fp)
   828c8:	10002526 	beq	r2,zero,82960 <handle_IrDA+0x2c8>
        nHwVol = gWavePlay.nVolume;
   828cc:	008002f4 	movhi	r2,11
   828d0:	10a70f04 	addi	r2,r2,-25540
   828d4:	10808d03 	ldbu	r2,564(r2)
   828d8:	10803fcc 	andi	r2,r2,255
   828dc:	e0bff515 	stw	r2,-44(fp)
        if(nHwVol != 47){
   828e0:	e0bff517 	ldw	r2,-44(fp)
   828e4:	10800be0 	cmpeqi	r2,r2,47
   828e8:	10000a1e 	bne	r2,zero,82914 <handle_IrDA+0x27c>
            nMute_Volume = nHwVol;
   828ec:	e0bff517 	ldw	r2,-44(fp)
   828f0:	d0a78e15 	stw	r2,-25032(gp)
            nHwVol = 47;
   828f4:	00800bc4 	movi	r2,47
   828f8:	e0bff515 	stw	r2,-44(fp)
            DEMO_PRINTF("Open Mute...\r\n");
   828fc:	010002b4 	movhi	r4,10
   82900:	21080204 	addi	r4,r4,8200
   82904:	008d8280 	call	8d828 <puts>

            bMuteSwitch = TRUE;
   82908:	00800044 	movi	r2,1
   8290c:	d0a79215 	stw	r2,-25016(gp)
   82910:	00000606 	br	8292c <handle_IrDA+0x294>
        }else{
            nHwVol = nMute_Volume;
   82914:	d0a78e17 	ldw	r2,-25032(gp)
   82918:	e0bff515 	stw	r2,-44(fp)
            DEMO_PRINTF("Shut Mute...\r\n");
   8291c:	010002b4 	movhi	r4,10
   82920:	21080604 	addi	r4,r4,8216
   82924:	008d8280 	call	8d828 <puts>

            bMuteSwitch = FALSE;
   82928:	d0279215 	stw	zero,-25016(gp)
        }
        AUDIO_SetLineOutVol(nHwVol, nHwVol);
   8292c:	e0bff517 	ldw	r2,-44(fp)
   82930:	10ffffcc 	andi	r3,r2,65535
   82934:	e0bff517 	ldw	r2,-44(fp)
   82938:	10bfffcc 	andi	r2,r2,65535
   8293c:	1809883a 	mov	r4,r3
   82940:	100b883a 	mov	r5,r2
   82944:	00865e00 	call	865e0 <AUDIO_SetLineOutVol>
        gWavePlay.nVolume = nHwVol;
   82948:	e0bff517 	ldw	r2,-44(fp)
   8294c:	1007883a 	mov	r3,r2
   82950:	008002f4 	movhi	r2,11
   82954:	10a70f04 	addi	r2,r2,-25540
   82958:	10c08d05 	stb	r3,564(r2)
        update_status();
   8295c:	00803900 	call	80390 <update_status>

    }
    if(bPlay){
   82960:	e0bffd17 	ldw	r2,-12(fp)
   82964:	10001026 	beq	r2,zero,829a8 <handle_IrDA+0x310>
        bPlaySwitch = !bPlaySwitch;
   82968:	d0a00017 	ldw	r2,-32768(gp)
   8296c:	1005003a 	cmpeq	r2,r2,zero
   82970:	10803fcc 	andi	r2,r2,255
   82974:	d0a00015 	stw	r2,-32768(gp)
        if(bPlaySwitch)
   82978:	d0a00017 	ldw	r2,-32768(gp)
   8297c:	10000426 	beq	r2,zero,82990 <handle_IrDA+0x2f8>
           printf("Play Continue...\r\n");
   82980:	010002b4 	movhi	r4,10
   82984:	21080a04 	addi	r4,r4,8232
   82988:	008d8280 	call	8d828 <puts>
   8298c:	00000306 	br	8299c <handle_IrDA+0x304>
        else
           printf("Play Pause...\r\n");
   82990:	010002b4 	movhi	r4,10
   82994:	21080f04 	addi	r4,r4,8252
   82998:	008d8280 	call	8d828 <puts>
        AUDIO_InterfaceActive(bPlaySwitch);
   8299c:	d0a00017 	ldw	r2,-32768(gp)
   829a0:	1009883a 	mov	r4,r2
   829a4:	0085e9c0 	call	85e9c <AUDIO_InterfaceActive>
    if (bLastSong || bNextSong || bVolUp || bVolDown){
        next_active_time +=  alt_ticks_per_second()/5;  // debounce
    }
#endif

}
   829a8:	e037883a 	mov	sp,fp
   829ac:	dfc00117 	ldw	ra,4(sp)
   829b0:	df000017 	ldw	fp,0(sp)
   829b4:	dec00204 	addi	sp,sp,8
   829b8:	f800283a 	ret

000829bc <Fat_Test>:

bool Fat_Test(FAT_HANDLE hFat, char *pDumpFile){
   829bc:	deff6704 	addi	sp,sp,-612
   829c0:	dfc09815 	stw	ra,608(sp)
   829c4:	df009715 	stw	fp,604(sp)
   829c8:	df009704 	addi	fp,sp,604
   829cc:	e13ffe15 	stw	r4,-8(fp)
   829d0:	e17fff15 	stw	r5,-4(fp)
    bool bSuccess;
    int nCount = 0;
   829d4:	e03f6a15 	stw	zero,-600(fp)
    FAT_BROWSE_HANDLE hBrowse;
    FILE_CONTEXT FileContext;

    bSuccess = Fat_FileBrowseBegin(hFat, &hBrowse);
   829d8:	e0bf7204 	addi	r2,fp,-568
   829dc:	e13ffe17 	ldw	r4,-8(fp)
   829e0:	100b883a 	mov	r5,r2
   829e4:	00832c00 	call	832c0 <Fat_FileBrowseBegin>
   829e8:	e0bf6915 	stw	r2,-604(fp)
    if (bSuccess){
   829ec:	e0bf6917 	ldw	r2,-604(fp)
   829f0:	10003d26 	beq	r2,zero,82ae8 <Fat_Test+0x12c>
        while(Fat_FileBrowseNext(&hBrowse, &FileContext)){
   829f4:	00003606 	br	82ad0 <Fat_Test+0x114>
            if (FileContext.bLongFilename){
   829f8:	e0bfb417 	ldw	r2,-304(fp)
   829fc:	10002b26 	beq	r2,zero,82aac <Fat_Test+0xf0>
                alt_u16 *pData16;
                alt_u8 *pData8;
                pData16 = (alt_u16 *)FileContext.szName;
   82a00:	e0bf7404 	addi	r2,fp,-560
   82a04:	e0bf6b15 	stw	r2,-596(fp)
                pData8 = FileContext.szName;
   82a08:	e0bf7404 	addi	r2,fp,-560
   82a0c:	e0bf6c15 	stw	r2,-592(fp)
                printf("[%d]", nCount);
   82a10:	010002b4 	movhi	r4,10
   82a14:	21081304 	addi	r4,r4,8268
   82a18:	e17f6a17 	ldw	r5,-600(fp)
   82a1c:	008d7140 	call	8d714 <printf>
                while(*pData16){
   82a20:	00001b06 	br	82a90 <Fat_Test+0xd4>
                    if (*pData8)
   82a24:	e0bf6c17 	ldw	r2,-592(fp)
   82a28:	10800003 	ldbu	r2,0(r2)
   82a2c:	10803fcc 	andi	r2,r2,255
   82a30:	10000526 	beq	r2,zero,82a48 <Fat_Test+0x8c>
                        printf("%c", *pData8);
   82a34:	e0bf6c17 	ldw	r2,-592(fp)
   82a38:	10800003 	ldbu	r2,0(r2)
   82a3c:	10803fcc 	andi	r2,r2,255
   82a40:	1009883a 	mov	r4,r2
   82a44:	008d7580 	call	8d758 <putchar>
                    pData8++;
   82a48:	e0bf6c17 	ldw	r2,-592(fp)
   82a4c:	10800044 	addi	r2,r2,1
   82a50:	e0bf6c15 	stw	r2,-592(fp)
                    if (*pData8)
   82a54:	e0bf6c17 	ldw	r2,-592(fp)
   82a58:	10800003 	ldbu	r2,0(r2)
   82a5c:	10803fcc 	andi	r2,r2,255
   82a60:	10000526 	beq	r2,zero,82a78 <Fat_Test+0xbc>
                        printf("%c", *pData8);
   82a64:	e0bf6c17 	ldw	r2,-592(fp)
   82a68:	10800003 	ldbu	r2,0(r2)
   82a6c:	10803fcc 	andi	r2,r2,255
   82a70:	1009883a 	mov	r4,r2
   82a74:	008d7580 	call	8d758 <putchar>
                    pData8++;
   82a78:	e0bf6c17 	ldw	r2,-592(fp)
   82a7c:	10800044 	addi	r2,r2,1
   82a80:	e0bf6c15 	stw	r2,-592(fp)
                    //
                    pData16++;
   82a84:	e0bf6b17 	ldw	r2,-596(fp)
   82a88:	10800084 	addi	r2,r2,2
   82a8c:	e0bf6b15 	stw	r2,-596(fp)
                alt_u16 *pData16;
                alt_u8 *pData8;
                pData16 = (alt_u16 *)FileContext.szName;
                pData8 = FileContext.szName;
                printf("[%d]", nCount);
                while(*pData16){
   82a90:	e0bf6b17 	ldw	r2,-596(fp)
   82a94:	1080000b 	ldhu	r2,0(r2)
   82a98:	10bfffcc 	andi	r2,r2,65535
   82a9c:	103fe11e 	bne	r2,zero,82a24 <__alt_mem_av_tri_s1_cfi_flash_0+0xfe082a24>
                        printf("%c", *pData8);
                    pData8++;
                    //
                    pData16++;
                }
                printf("\n");
   82aa0:	01000284 	movi	r4,10
   82aa4:	008d7580 	call	8d758 <putchar>
   82aa8:	00000606 	br	82ac4 <Fat_Test+0x108>
            }else{
                printf("---[%d]%s\n", nCount, FileContext.szName);
   82aac:	e0bf7404 	addi	r2,fp,-560
   82ab0:	010002b4 	movhi	r4,10
   82ab4:	21081504 	addi	r4,r4,8276
   82ab8:	e17f6a17 	ldw	r5,-600(fp)
   82abc:	100d883a 	mov	r6,r2
   82ac0:	008d7140 	call	8d714 <printf>
            }
            nCount++;
   82ac4:	e0bf6a17 	ldw	r2,-600(fp)
   82ac8:	10800044 	addi	r2,r2,1
   82acc:	e0bf6a15 	stw	r2,-600(fp)
    FAT_BROWSE_HANDLE hBrowse;
    FILE_CONTEXT FileContext;

    bSuccess = Fat_FileBrowseBegin(hFat, &hBrowse);
    if (bSuccess){
        while(Fat_FileBrowseNext(&hBrowse, &FileContext)){
   82ad0:	e0ff7204 	addi	r3,fp,-568
   82ad4:	e0bf7404 	addi	r2,fp,-560
   82ad8:	1809883a 	mov	r4,r3
   82adc:	100b883a 	mov	r5,r2
   82ae0:	008332c0 	call	8332c <Fat_FileBrowseNext>
   82ae4:	103fc41e 	bne	r2,zero,829f8 <__alt_mem_av_tri_s1_cfi_flash_0+0xfe0829f8>
                printf("---[%d]%s\n", nCount, FileContext.szName);
            }
            nCount++;
        }
    }
    if (bSuccess && pDumpFile && strlen(pDumpFile)){
   82ae8:	e0bf6917 	ldw	r2,-604(fp)
   82aec:	10005926 	beq	r2,zero,82c54 <Fat_Test+0x298>
   82af0:	e0bfff17 	ldw	r2,-4(fp)
   82af4:	10005726 	beq	r2,zero,82c54 <Fat_Test+0x298>
   82af8:	e0bfff17 	ldw	r2,-4(fp)
   82afc:	10800003 	ldbu	r2,0(r2)
   82b00:	10803fcc 	andi	r2,r2,255
   82b04:	1080201c 	xori	r2,r2,128
   82b08:	10bfe004 	addi	r2,r2,-128
   82b0c:	10005126 	beq	r2,zero,82c54 <Fat_Test+0x298>
        FAT_FILE_HANDLE hFile;
        hFile =  Fat_FileOpen(hFat, pDumpFile);
   82b10:	e13ffe17 	ldw	r4,-8(fp)
   82b14:	e17fff17 	ldw	r5,-4(fp)
   82b18:	0083ab80 	call	83ab8 <Fat_FileOpen>
   82b1c:	e0bf7015 	stw	r2,-576(fp)
        if (hFile){
   82b20:	e0bf7017 	ldw	r2,-576(fp)
   82b24:	10004626 	beq	r2,zero,82c40 <Fat_Test+0x284>
            char szRead[256];
            int nReadSize, nFileSize, nTotalReadSize=0;
   82b28:	e03f6e15 	stw	zero,-584(fp)
            nFileSize = Fat_FileSize(hFile);
   82b2c:	e13f7017 	ldw	r4,-576(fp)
   82b30:	0083cd80 	call	83cd8 <Fat_FileSize>
   82b34:	e0bf7115 	stw	r2,-572(fp)
            if (nReadSize > sizeof(szRead))
   82b38:	e0bf6d17 	ldw	r2,-588(fp)
   82b3c:	10804070 	cmpltui	r2,r2,257
   82b40:	1000021e 	bne	r2,zero,82b4c <Fat_Test+0x190>
                nReadSize = sizeof(szRead);
   82b44:	00804004 	movi	r2,256
   82b48:	e0bf6d15 	stw	r2,-588(fp)
            printf("%s dump:\n", pDumpFile);
   82b4c:	010002b4 	movhi	r4,10
   82b50:	21081804 	addi	r4,r4,8288
   82b54:	e17fff17 	ldw	r5,-4(fp)
   82b58:	008d7140 	call	8d714 <printf>
            while(bSuccess && nTotalReadSize < nFileSize){
   82b5c:	00002c06 	br	82c10 <Fat_Test+0x254>
                nReadSize = sizeof(szRead);
   82b60:	00804004 	movi	r2,256
   82b64:	e0bf6d15 	stw	r2,-588(fp)
                if (nReadSize > (nFileSize - nTotalReadSize))
   82b68:	e0ff7117 	ldw	r3,-572(fp)
   82b6c:	e0bf6e17 	ldw	r2,-584(fp)
   82b70:	1887c83a 	sub	r3,r3,r2
   82b74:	e0bf6d17 	ldw	r2,-588(fp)
   82b78:	1880040e 	bge	r3,r2,82b8c <Fat_Test+0x1d0>
                    nReadSize = (nFileSize - nTotalReadSize);
   82b7c:	e0ff7117 	ldw	r3,-572(fp)
   82b80:	e0bf6e17 	ldw	r2,-584(fp)
   82b84:	1885c83a 	sub	r2,r3,r2
   82b88:	e0bf6d15 	stw	r2,-588(fp)
                //
                if (Fat_FileRead(hFile, szRead, nReadSize)){
   82b8c:	e0bfbe04 	addi	r2,fp,-264
   82b90:	e13f7017 	ldw	r4,-576(fp)
   82b94:	100b883a 	mov	r5,r2
   82b98:	e1bf6d17 	ldw	r6,-588(fp)
   82b9c:	0083d1c0 	call	83d1c <Fat_FileRead>
   82ba0:	10001626 	beq	r2,zero,82bfc <Fat_Test+0x240>
                    int i;
                    for(i=0;i<nReadSize;i++){
   82ba4:	e03f6f15 	stw	zero,-580(fp)
   82ba8:	00000c06 	br	82bdc <Fat_Test+0x220>
                        printf("%c", szRead[i]);
   82bac:	e0ffbe04 	addi	r3,fp,-264
   82bb0:	e0bf6f17 	ldw	r2,-580(fp)
   82bb4:	1885883a 	add	r2,r3,r2
   82bb8:	10800003 	ldbu	r2,0(r2)
   82bbc:	10803fcc 	andi	r2,r2,255
   82bc0:	1080201c 	xori	r2,r2,128
   82bc4:	10bfe004 	addi	r2,r2,-128
   82bc8:	1009883a 	mov	r4,r2
   82bcc:	008d7580 	call	8d758 <putchar>
                if (nReadSize > (nFileSize - nTotalReadSize))
                    nReadSize = (nFileSize - nTotalReadSize);
                //
                if (Fat_FileRead(hFile, szRead, nReadSize)){
                    int i;
                    for(i=0;i<nReadSize;i++){
   82bd0:	e0bf6f17 	ldw	r2,-580(fp)
   82bd4:	10800044 	addi	r2,r2,1
   82bd8:	e0bf6f15 	stw	r2,-580(fp)
   82bdc:	e0ff6f17 	ldw	r3,-580(fp)
   82be0:	e0bf6d17 	ldw	r2,-588(fp)
   82be4:	18bff116 	blt	r3,r2,82bac <__alt_mem_av_tri_s1_cfi_flash_0+0xfe082bac>
                        printf("%c", szRead[i]);
                    }
                    nTotalReadSize += nReadSize;
   82be8:	e0ff6e17 	ldw	r3,-584(fp)
   82bec:	e0bf6d17 	ldw	r2,-588(fp)
   82bf0:	1885883a 	add	r2,r3,r2
   82bf4:	e0bf6e15 	stw	r2,-584(fp)
   82bf8:	00000506 	br	82c10 <Fat_Test+0x254>
                }else{
                    bSuccess = FALSE;
   82bfc:	e03f6915 	stw	zero,-604(fp)
                    printf("\nFaied to read the file \"%s\"\n", pDumpFile);
   82c00:	010002b4 	movhi	r4,10
   82c04:	21081b04 	addi	r4,r4,8300
   82c08:	e17fff17 	ldw	r5,-4(fp)
   82c0c:	008d7140 	call	8d714 <printf>
            int nReadSize, nFileSize, nTotalReadSize=0;
            nFileSize = Fat_FileSize(hFile);
            if (nReadSize > sizeof(szRead))
                nReadSize = sizeof(szRead);
            printf("%s dump:\n", pDumpFile);
            while(bSuccess && nTotalReadSize < nFileSize){
   82c10:	e0bf6917 	ldw	r2,-604(fp)
   82c14:	10000326 	beq	r2,zero,82c24 <Fat_Test+0x268>
   82c18:	e0ff6e17 	ldw	r3,-584(fp)
   82c1c:	e0bf7117 	ldw	r2,-572(fp)
   82c20:	18bfcf16 	blt	r3,r2,82b60 <__alt_mem_av_tri_s1_cfi_flash_0+0xfe082b60>
                }else{
                    bSuccess = FALSE;
                    printf("\nFaied to read the file \"%s\"\n", pDumpFile);
                }
            } // while
            if (bSuccess)
   82c24:	e0bf6917 	ldw	r2,-604(fp)
   82c28:	10000226 	beq	r2,zero,82c34 <Fat_Test+0x278>
                printf("\n");
   82c2c:	01000284 	movi	r4,10
   82c30:	008d7580 	call	8d758 <putchar>
            Fat_FileClose(hFile);
   82c34:	e13f7017 	ldw	r4,-576(fp)
   82c38:	00842b40 	call	842b4 <Fat_FileClose>
   82c3c:	00000506 	br	82c54 <Fat_Test+0x298>
        }else{
            bSuccess = FALSE;
   82c40:	e03f6915 	stw	zero,-604(fp)
            printf("Cannot find the file \"%s\"\n", pDumpFile);
   82c44:	010002b4 	movhi	r4,10
   82c48:	21082304 	addi	r4,r4,8332
   82c4c:	e17fff17 	ldw	r5,-4(fp)
   82c50:	008d7140 	call	8d714 <printf>
        }
    }

    return bSuccess;
   82c54:	e0bf6917 	ldw	r2,-604(fp)
}
   82c58:	e037883a 	mov	sp,fp
   82c5c:	dfc00117 	ldw	ra,4(sp)
   82c60:	df000017 	ldw	fp,0(sp)
   82c64:	dec00204 	addi	sp,sp,8
   82c68:	f800283a 	ret

00082c6c <main>:

int main()
{
   82c6c:	deffe004 	addi	sp,sp,-128
   82c70:	dfc01f15 	stw	ra,124(sp)
   82c74:	df001e15 	stw	fp,120(sp)
   82c78:	df001e04 	addi	fp,sp,120
    int nPlayIndex;
    alt_u32 cnt, uSongStartTime, uTimeElapsed;
    alt_8 led_mask = 0x03;
   82c7c:	008000c4 	movi	r2,3
   82c80:	e0bfe505 	stb	r2,-108(fp)
    alt_u8 szWaveFile[FILENAME_LEN];
    alt_u8 szWaveFile_vocal[FILENAME_LEN];
    IRDA_init();
   82c84:	00826440 	call	82644 <IRDA_init>
    lcd_open();
   82c88:	00804cc0 	call	804cc <lcd_open>
    welcome_display();
   82c8c:	008028c0 	call	8028c <welcome_display>
    demo_introduce();
   82c90:	00802f40 	call	802f4 <demo_introduce>
    if (!AUDIO_Init()){
   82c94:	0085d140 	call	85d14 <AUDIO_Init>
   82c98:	1000081e 	bne	r2,zero,82cbc <main+0x50>
        DEMO_PRINTF("Audio Init fail!\n");
   82c9c:	010002b4 	movhi	r4,10
   82ca0:	21082a04 	addi	r4,r4,8360
   82ca4:	008d8280 	call	8d828 <puts>
        lcd_display(("Audio Init fail!\n\n"));
   82ca8:	010002b4 	movhi	r4,10
   82cac:	21082f04 	addi	r4,r4,8380
   82cb0:	00804f40 	call	804f4 <lcd_display>
        return 0;
   82cb4:	0005883a 	mov	r2,zero
   82cb8:	00013d06 	br	831b0 <main+0x544>
    }

    if(!AUDIO_SetInputSource(SOURCE_MIC)){
   82cbc:	0009883a 	mov	r4,zero
   82cc0:	008635c0 	call	8635c <AUDIO_SetInputSource>
   82cc4:	1000031e 	bne	r2,zero,82cd4 <main+0x68>
    	DEMO_PRINTF("AUDIO_SetInputSource fail!\n");
   82cc8:	010002b4 	movhi	r4,10
   82ccc:	21083404 	addi	r4,r4,8400
   82cd0:	008d8280 	call	8d828 <puts>
    */
    //AUDIO_EnableByPass(TRUE);
    //AUDIO_EnableSiteTone(TRUE);
    //AUDIO_EnableSiteTone(FALSE);

    memset(&gWavePlay, 0, sizeof(gWavePlay));
   82cd4:	010002f4 	movhi	r4,11
   82cd8:	21270f04 	addi	r4,r4,-25540
   82cdc:	000b883a 	mov	r5,zero
   82ce0:	01809004 	movi	r6,576
   82ce4:	008d5680 	call	8d568 <memset>
    gWavePlay.nVolume = HW_DEFAULT_VOL;
   82ce8:	008002f4 	movhi	r2,11
   82cec:	10a70f04 	addi	r2,r2,-25540
   82cf0:	00c01e04 	movi	r3,120
   82cf4:	10c08d05 	stb	r3,564(r2)
    AUDIO_SetLineOutVol(gWavePlay.nVolume, gWavePlay.nVolume);
   82cf8:	008002f4 	movhi	r2,11
   82cfc:	10a70f04 	addi	r2,r2,-25540
   82d00:	10808d03 	ldbu	r2,564(r2)
   82d04:	10c03fcc 	andi	r3,r2,255
   82d08:	008002f4 	movhi	r2,11
   82d0c:	10a70f04 	addi	r2,r2,-25540
   82d10:	10808d03 	ldbu	r2,564(r2)
   82d14:	10803fcc 	andi	r2,r2,255
   82d18:	1809883a 	mov	r4,r3
   82d1c:	100b883a 	mov	r5,r2
   82d20:	00865e00 	call	865e0 <AUDIO_SetLineOutVol>

    while(1){

        // check SD card
        wait_sdcard_insert();
   82d24:	00805900 	call	80590 <wait_sdcard_insert>

        // Mount SD-CARD
        hFat = Fat_Mount(FAT_SD_CARD, 0);
   82d28:	0009883a 	mov	r4,zero
   82d2c:	000b883a 	mov	r5,zero
   82d30:	00831c40 	call	831c4 <Fat_Mount>
   82d34:	d0a78d15 	stw	r2,-25036(gp)
        //hFat_vocal = Fat_Mount(FAT_SD_CARD, 0);
        if (!hFat){
   82d38:	d0a78d17 	ldw	r2,-25036(gp)
   82d3c:	1000081e 	bne	r2,zero,82d60 <main+0xf4>
            DEMO_PRINTF("SD card mount fail.\n");
   82d40:	010002b4 	movhi	r4,10
   82d44:	21083b04 	addi	r4,r4,8428
   82d48:	008d8280 	call	8d828 <puts>
            lcd_display(("SD card mount fail.\n\n"));
   82d4c:	010002b4 	movhi	r4,10
   82d50:	21084004 	addi	r4,r4,8448
   82d54:	00804f40 	call	804f4 <lcd_display>
            return 0;
   82d58:	0005883a 	mov	r2,zero
   82d5c:	00011406 	br	831b0 <main+0x544>
        }
        else{
           if (build_wave_play_list(hFat) == 0){
   82d60:	d0a78d17 	ldw	r2,-25036(gp)
   82d64:	1009883a 	mov	r4,r2
   82d68:	00806a00 	call	806a0 <build_wave_play_list>
   82d6c:	1000081e 	bne	r2,zero,82d90 <main+0x124>
            DEMO_PRINTF("(test)There is no wave file in the root directory of SD card.\n");
   82d70:	010002b4 	movhi	r4,10
   82d74:	21084604 	addi	r4,r4,8472
   82d78:	008d8280 	call	8d828 <puts>
            lcd_display(("No Wave Files.\n\n"));
   82d7c:	010002b4 	movhi	r4,10
   82d80:	21085604 	addi	r4,r4,8536
   82d84:	00804f40 	call	804f4 <lcd_display>
            return 0;
   82d88:	0005883a 	mov	r2,zero
   82d8c:	00010806 	br	831b0 <main+0x544>
			}
		}
		*/


        bool bSdacrdReady = TRUE;
   82d90:	00800044 	movi	r2,1
   82d94:	e0bfe615 	stw	r2,-104(fp)
        nPlayIndex = 0;
   82d98:	e03fe215 	stw	zero,-120(fp)
        while(bSdacrdReady){
   82d9c:	00010106 	br	831a4 <main+0x538>
            // find a wave file
            bool bPlayDone = FALSE;
   82da0:	e03fe715 	stw	zero,-100(fp)
            if((IORD_ALTERA_AVALON_PIO_DATA(SW_BASE) & 0x02)?TRUE:FALSE){
   82da4:	00804034 	movhi	r2,256
   82da8:	10804004 	addi	r2,r2,256
   82dac:	10800037 	ldwio	r2,0(r2)
   82db0:	1080008c 	andi	r2,r2,2
   82db4:	10000b26 	beq	r2,zero,82de4 <main+0x178>
            	strcpy(szWaveFile, gWavePlayList_bgm.szFilename[nPlayIndex]);
   82db8:	e0bfe217 	ldw	r2,-120(fp)
   82dbc:	1004917a 	slli	r2,r2,5
   82dc0:	10c00104 	addi	r3,r2,4
   82dc4:	008002b4 	movhi	r2,10
   82dc8:	109f0d04 	addi	r2,r2,31796
   82dcc:	1885883a 	add	r2,r3,r2
   82dd0:	e0ffec04 	addi	r3,fp,-80
   82dd4:	1809883a 	mov	r4,r3
   82dd8:	100b883a 	mov	r5,r2
   82ddc:	008dd680 	call	8dd68 <strcpy>
   82de0:	00000a06 	br	82e0c <main+0x1a0>
            }else{
            	strcpy(szWaveFile, gWavePlayList.szFilename[nPlayIndex]);
   82de4:	e0bfe217 	ldw	r2,-120(fp)
   82de8:	1004917a 	slli	r2,r2,5
   82dec:	10c00104 	addi	r3,r2,4
   82df0:	008002b4 	movhi	r2,10
   82df4:	109b0c04 	addi	r2,r2,27696
   82df8:	1885883a 	add	r2,r3,r2
   82dfc:	e0ffec04 	addi	r3,fp,-80
   82e00:	1809883a 	mov	r4,r3
   82e04:	100b883a 	mov	r5,r2
   82e08:	008dd680 	call	8dd68 <strcpy>
            }
            strcpy(szWaveFile_vocal, gWavePlayList_vocal.szFilename[nPlayIndex]);
   82e0c:	e0bfe217 	ldw	r2,-120(fp)
   82e10:	1004917a 	slli	r2,r2,5
   82e14:	10c00104 	addi	r3,r2,4
   82e18:	008002f4 	movhi	r2,11
   82e1c:	10a30e04 	addi	r2,r2,-29640
   82e20:	1885883a 	add	r2,r3,r2
   82e24:	e0fff404 	addi	r3,fp,-48
   82e28:	1809883a 	mov	r4,r3
   82e2c:	100b883a 	mov	r5,r2
   82e30:	008dd680 	call	8dd68 <strcpy>
            DEMO_PRINTF("Play Song:%s\r\n", szWaveFile);
   82e34:	e0bfec04 	addi	r2,fp,-80
   82e38:	010002b4 	movhi	r4,10
   82e3c:	21085b04 	addi	r4,r4,8556
   82e40:	100b883a 	mov	r5,r2
   82e44:	008d7140 	call	8d714 <printf>
            if (!waveplay_start(szWaveFile, szWaveFile_vocal)){
   82e48:	e0ffec04 	addi	r3,fp,-80
   82e4c:	e0bff404 	addi	r2,fp,-48
   82e50:	1809883a 	mov	r4,r3
   82e54:	100b883a 	mov	r5,r2
   82e58:	00813dc0 	call	813dc <waveplay_start>
   82e5c:	1000071e 	bne	r2,zero,82e7c <main+0x210>
                DEMO_PRINTF("waveplay_start error\r\n");
   82e60:	010002b4 	movhi	r4,10
   82e64:	21085f04 	addi	r4,r4,8572
   82e68:	008d8280 	call	8d828 <puts>
                lcd_display("Play Error.\n\n");
   82e6c:	010002b4 	movhi	r4,10
   82e70:	21086504 	addi	r4,r4,8596
   82e74:	00804f40 	call	804f4 <lcd_display>
                bSdacrdReady = FALSE;
   82e78:	e03fe615 	stw	zero,-104(fp)
            }
            if(bKaraoke){
   82e7c:	d0a79317 	ldw	r2,-25012(gp)
   82e80:	10000326 	beq	r2,zero,82e90 <main+0x224>
            	DEMO_PRINTF("Karaoke Start!");
   82e84:	010002b4 	movhi	r4,10
   82e88:	21086904 	addi	r4,r4,8612
   82e8c:	008d7140 	call	8d714 <printf>
            }
            update_status();
   82e90:	00803900 	call	80390 <update_status>
            cnt = 0;
   82e94:	e03fe315 	stw	zero,-116(fp)
 * alt_nticks() returns the elapsed number of system clock ticks since reset.
 */

static ALT_INLINE alt_u32 ALT_ALWAYS_INLINE alt_nticks (void)
{
  return _alt_nticks;
   82e98:	008002b4 	movhi	r2,10
   82e9c:	109b0a04 	addi	r2,r2,27688
   82ea0:	10800017 	ldw	r2,0(r2)
            uSongStartTime = alt_nticks();
   82ea4:	e0bfe415 	stw	r2,-112(fp)
			DEMO_PRINTF("bSdacrdReady:%d\n",TRUE);
			DEMO_PRINTF("bEndOfFile:%d\n",FALSE);
			DEMO_PRINTF("bLastSongPressed:%d\n",FALSE);
			DEMO_PRINTF("bNextSongPressed:%d\n",FALSE);
			*/
            while(!bPlayDone && bSdacrdReady){
   82ea8:	0000b906 	br	83190 <main+0x524>
                bool bLastSongPressed  = FALSE;
   82eac:	e03fe815 	stw	zero,-96(fp)
                bool bNextSongPressed  = FALSE;
   82eb0:	e03ffc15 	stw	zero,-16(fp)
                bool bEndOfFile = FALSE;
   82eb4:	e03ffd15 	stw	zero,-12(fp)
                bool ChangePlayMode = FALSE;
   82eb8:	e03ffe15 	stw	zero,-8(fp)
                bool ChangeKaraoke = FALSE;
   82ebc:	e03fff15 	stw	zero,-4(fp)
                if ((cnt++ & 0x1F) == 0){
   82ec0:	e0bfe317 	ldw	r2,-116(fp)
   82ec4:	10c00044 	addi	r3,r2,1
   82ec8:	e0ffe315 	stw	r3,-116(fp)
   82ecc:	108007cc 	andi	r2,r2,31
   82ed0:	1000061e 	bne	r2,zero,82eec <main+0x280>
                    led_display(led_mask);
   82ed4:	e0bfe507 	ldb	r2,-108(fp)
   82ed8:	1009883a 	mov	r4,r2
   82edc:	00805280 	call	80528 <led_display>
                    led_mask ^= 0x01;
   82ee0:	e0bfe503 	ldbu	r2,-108(fp)
   82ee4:	1080005c 	xori	r2,r2,1
   82ee8:	e0bfe505 	stb	r2,-108(fp)
                }

                // play wave file
                if (!waveplay_execute(&bEndOfFile)){
   82eec:	e0bffd04 	addi	r2,fp,-12
   82ef0:	1009883a 	mov	r4,r2
   82ef4:	0081ae40 	call	81ae4 <waveplay_execute>
   82ef8:	1000071e 	bne	r2,zero,82f18 <main+0x2ac>
                    DEMO_PRINTF("waveplay_execute error\r\n");
   82efc:	010002b4 	movhi	r4,10
   82f00:	21086d04 	addi	r4,r4,8628
   82f04:	008d8280 	call	8d828 <puts>
                    lcd_display("Play Error.\n\n");
   82f08:	010002b4 	movhi	r4,10
   82f0c:	21086504 	addi	r4,r4,8596
   82f10:	00804f40 	call	804f4 <lcd_display>
                    bSdacrdReady = FALSE;
   82f14:	e03fe615 	stw	zero,-104(fp)
                }

                // handle key event
                handle_key(&bNextSongPressed, &ChangePlayMode, &ChangeKaraoke);
   82f18:	e13ffc04 	addi	r4,fp,-16
   82f1c:	e0fffe04 	addi	r3,fp,-8
   82f20:	e0bfff04 	addi	r2,fp,-4
   82f24:	180b883a 	mov	r5,r3
   82f28:	100d883a 	mov	r6,r2
   82f2c:	00823600 	call	82360 <handle_key>

                if(ChangePlayMode){
   82f30:	e0bffe17 	ldw	r2,-8(fp)
   82f34:	10003926 	beq	r2,zero,8301c <main+0x3b0>
   82f38:	008002b4 	movhi	r2,10
   82f3c:	109b0a04 	addi	r2,r2,27688
   82f40:	10800017 	ldw	r2,0(r2)
                	//DEMO_PRINTF("ChangePlayMode\r\n");
                	uSongStartTime = alt_nticks();
   82f44:	e0bfe415 	stw	r2,-112(fp)
                	waveplay_stop();
   82f48:	00823440 	call	82344 <waveplay_stop>
					if(gWavePlay.bPlayMode){
   82f4c:	008002f4 	movhi	r2,11
   82f50:	10a70f04 	addi	r2,r2,-25540
   82f54:	10808f17 	ldw	r2,572(r2)
   82f58:	10001726 	beq	r2,zero,82fb8 <main+0x34c>
						if(!waveplay_start(gWavePlayList_bgm.szFilename[nPlayIndex],gWavePlayList_vocal.szFilename[nPlayIndex])){
   82f5c:	e0bfe217 	ldw	r2,-120(fp)
   82f60:	1004917a 	slli	r2,r2,5
   82f64:	10c00104 	addi	r3,r2,4
   82f68:	008002b4 	movhi	r2,10
   82f6c:	109f0d04 	addi	r2,r2,31796
   82f70:	1889883a 	add	r4,r3,r2
   82f74:	e0bfe217 	ldw	r2,-120(fp)
   82f78:	1004917a 	slli	r2,r2,5
   82f7c:	10c00104 	addi	r3,r2,4
   82f80:	008002f4 	movhi	r2,11
   82f84:	10a30e04 	addi	r2,r2,-29640
   82f88:	1885883a 	add	r2,r3,r2
   82f8c:	100b883a 	mov	r5,r2
   82f90:	00813dc0 	call	813dc <waveplay_start>
   82f94:	10001e1e 	bne	r2,zero,83010 <main+0x3a4>
							DEMO_PRINTF("waveplay_change_mode error\r\n");
   82f98:	010002b4 	movhi	r4,10
   82f9c:	21087304 	addi	r4,r4,8652
   82fa0:	008d8280 	call	8d828 <puts>
							lcd_display("ChangeMode Error.\n\n");
   82fa4:	010002b4 	movhi	r4,10
   82fa8:	21087a04 	addi	r4,r4,8680
   82fac:	00804f40 	call	804f4 <lcd_display>
							bSdacrdReady = FALSE;
   82fb0:	e03fe615 	stw	zero,-104(fp)
   82fb4:	00001606 	br	83010 <main+0x3a4>
						}
					}else{
						if(!waveplay_start(gWavePlayList.szFilename[nPlayIndex],gWavePlayList_vocal.szFilename[nPlayIndex])){
   82fb8:	e0bfe217 	ldw	r2,-120(fp)
   82fbc:	1004917a 	slli	r2,r2,5
   82fc0:	10c00104 	addi	r3,r2,4
   82fc4:	008002b4 	movhi	r2,10
   82fc8:	109b0c04 	addi	r2,r2,27696
   82fcc:	1889883a 	add	r4,r3,r2
   82fd0:	e0bfe217 	ldw	r2,-120(fp)
   82fd4:	1004917a 	slli	r2,r2,5
   82fd8:	10c00104 	addi	r3,r2,4
   82fdc:	008002f4 	movhi	r2,11
   82fe0:	10a30e04 	addi	r2,r2,-29640
   82fe4:	1885883a 	add	r2,r3,r2
   82fe8:	100b883a 	mov	r5,r2
   82fec:	00813dc0 	call	813dc <waveplay_start>
   82ff0:	1000071e 	bne	r2,zero,83010 <main+0x3a4>
							DEMO_PRINTF("waveplay_change_mode error\r\n");
   82ff4:	010002b4 	movhi	r4,10
   82ff8:	21087304 	addi	r4,r4,8652
   82ffc:	008d8280 	call	8d828 <puts>
							lcd_display("ChangeMode Error.\n\n");
   83000:	010002b4 	movhi	r4,10
   83004:	21087a04 	addi	r4,r4,8680
   83008:	00804f40 	call	804f4 <lcd_display>
							bSdacrdReady = FALSE;
   8300c:	e03fe615 	stw	zero,-104(fp)
						}
					}
					ChangePlayMode = FALSE;
   83010:	e03ffe15 	stw	zero,-8(fp)
					update_status();
   83014:	00803900 	call	80390 <update_status>
   83018:	00000f06 	br	83058 <main+0x3ec>
				}else if(ChangeKaraoke){
   8301c:	e0bfff17 	ldw	r2,-4(fp)
   83020:	10000d26 	beq	r2,zero,83058 <main+0x3ec>
					waveplay_stop();
   83024:	00823440 	call	82344 <waveplay_stop>
					score = 0;
   83028:	d0279515 	stw	zero,-25004(gp)
					percent = 0;
   8302c:	d0279415 	stw	zero,-25008(gp)
					score_total = 0;
   83030:	d0279915 	stw	zero,-24988(gp)
					ch_mic_total = 0;
   83034:	d0279b15 	stw	zero,-24980(gp)
					ch_vocal_total = 0;
   83038:	d0279a15 	stw	zero,-24984(gp)
					IOWR(SCORER_0_BASE, 3, 0x00);
   8303c:	0007883a 	mov	r3,zero
   83040:	00a00314 	movui	r2,32780
   83044:	10c00035 	stwio	r3,0(r2)
					DEMO_PRINTF("ChangeKaraokeMode\r\n");
   83048:	010002b4 	movhi	r4,10
   8304c:	21087f04 	addi	r4,r4,8700
   83050:	008d8280 	call	8d828 <puts>
   83054:	00005206 	br	831a0 <main+0x534>
					break;
				}

                if(bLastSwitch){
   83058:	d0a79017 	ldw	r2,-25024(gp)
   8305c:	10000326 	beq	r2,zero,8306c <main+0x400>
                    bLastSongPressed = TRUE;
   83060:	00800044 	movi	r2,1
   83064:	e0bfe815 	stw	r2,-96(fp)
                    bNextSongPressed = FALSE;
   83068:	e03ffc15 	stw	zero,-16(fp)
                }
                 if(bNextSwitch){
   8306c:	d0a79117 	ldw	r2,-25020(gp)
   83070:	10000326 	beq	r2,zero,83080 <main+0x414>
                    bLastSongPressed = FALSE;
   83074:	e03fe815 	stw	zero,-96(fp)
                    bNextSongPressed = TRUE;
   83078:	00800044 	movi	r2,1
   8307c:	e0bffc15 	stw	r2,-16(fp)
                }
                if (bSdacrdReady && (bEndOfFile || bLastSongPressed || bNextSongPressed)){
   83080:	e0bfe617 	ldw	r2,-104(fp)
   83084:	10003826 	beq	r2,zero,83168 <main+0x4fc>
   83088:	e0bffd17 	ldw	r2,-12(fp)
   8308c:	1000041e 	bne	r2,zero,830a0 <main+0x434>
   83090:	e0bfe817 	ldw	r2,-96(fp)
   83094:	1000021e 	bne	r2,zero,830a0 <main+0x434>
   83098:	e0bffc17 	ldw	r2,-16(fp)
   8309c:	10003226 	beq	r2,zero,83168 <main+0x4fc>
                    bool bNextSong = FALSE;
   830a0:	e03fe915 	stw	zero,-92(fp)
                    bool bLastSong = FALSE;
   830a4:	e03fea15 	stw	zero,-88(fp)

                    if(bLastSongPressed) bLastSong = TRUE;
   830a8:	e0bfe817 	ldw	r2,-96(fp)
   830ac:	10000226 	beq	r2,zero,830b8 <main+0x44c>
   830b0:	00800044 	movi	r2,1
   830b4:	e0bfea15 	stw	r2,-88(fp)
                    if(bNextSongPressed || bEndOfFile) bNextSong = TRUE;
   830b8:	e0bffc17 	ldw	r2,-16(fp)
   830bc:	1000021e 	bne	r2,zero,830c8 <main+0x45c>
   830c0:	e0bffd17 	ldw	r2,-12(fp)
   830c4:	10000226 	beq	r2,zero,830d0 <main+0x464>
   830c8:	00800044 	movi	r2,1
   830cc:	e0bfe915 	stw	r2,-92(fp)
                    // check whether in REPEAT mode
                    if (!bLastSongPressed && !bNextSongPressed && gWavePlay.bRepeatMode){
   830d0:	e0bfe817 	ldw	r2,-96(fp)
   830d4:	1000081e 	bne	r2,zero,830f8 <main+0x48c>
   830d8:	e0bffc17 	ldw	r2,-16(fp)
   830dc:	1000061e 	bne	r2,zero,830f8 <main+0x48c>
   830e0:	008002f4 	movhi	r2,11
   830e4:	10a70f04 	addi	r2,r2,-25540
   830e8:	10808e17 	ldw	r2,568(r2)
   830ec:	10000226 	beq	r2,zero,830f8 <main+0x48c>
                        bNextSong = FALSE;  // in repeat mode
   830f0:	e03fe915 	stw	zero,-92(fp)
                        bLastSong = FALSE;
   830f4:	e03fea15 	stw	zero,-88(fp)
                    }
                    if (bNextSong){  // index update for next song
   830f8:	e0bfe917 	ldw	r2,-92(fp)
   830fc:	10000926 	beq	r2,zero,83124 <main+0x4b8>
                        nPlayIndex++;
   83100:	e0bfe217 	ldw	r2,-120(fp)
   83104:	10800044 	addi	r2,r2,1
   83108:	e0bfe215 	stw	r2,-120(fp)
                        if (nPlayIndex >= gWavePlayList.nFileNum)
   8310c:	008002b4 	movhi	r2,10
   83110:	109b0c04 	addi	r2,r2,27696
   83114:	10800017 	ldw	r2,0(r2)
   83118:	e0ffe217 	ldw	r3,-120(fp)
   8311c:	18800116 	blt	r3,r2,83124 <main+0x4b8>
                            nPlayIndex = 0;
   83120:	e03fe215 	stw	zero,-120(fp)
                    }
                    if (bLastSong){  // index update for last song
   83124:	e0bfea17 	ldw	r2,-88(fp)
   83128:	10000a26 	beq	r2,zero,83154 <main+0x4e8>
                        nPlayIndex--;
   8312c:	e0bfe217 	ldw	r2,-120(fp)
   83130:	10bfffc4 	addi	r2,r2,-1
   83134:	e0bfe215 	stw	r2,-120(fp)
                        if (nPlayIndex < 0)
   83138:	e0bfe217 	ldw	r2,-120(fp)
   8313c:	1000050e 	bge	r2,zero,83154 <main+0x4e8>
                            nPlayIndex = gWavePlayList.nFileNum-1;
   83140:	008002b4 	movhi	r2,10
   83144:	109b0c04 	addi	r2,r2,27696
   83148:	10800017 	ldw	r2,0(r2)
   8314c:	10bfffc4 	addi	r2,r2,-1
   83150:	e0bfe215 	stw	r2,-120(fp)
                    }
                    bPlayDone = TRUE;
   83154:	00800044 	movi	r2,1
   83158:	e0bfe715 	stw	r2,-100(fp)
                    DEMO_PRINTF("PlayDone\n");
   8315c:	010002b4 	movhi	r4,10
   83160:	21088404 	addi	r4,r4,8720
   83164:	008d8280 	call	8d828 <puts>
                    DEMO_PRINTF("bLastSongPressed:%d\n",bLastSongPressed);
                    DEMO_PRINTF("bNextSongPressed:%d\n",bNextSongPressed);
                    */

                }
                bLastSwitch = FALSE;
   83168:	d0279015 	stw	zero,-25024(gp)
                bNextSwitch = FALSE;
   8316c:	d0279115 	stw	zero,-25020(gp)
   83170:	008002b4 	movhi	r2,10
   83174:	109b0a04 	addi	r2,r2,27688
   83178:	10c00017 	ldw	r3,0(r2)

                uTimeElapsed = alt_nticks() - uSongStartTime;
   8317c:	e0bfe417 	ldw	r2,-112(fp)
   83180:	1885c83a 	sub	r2,r3,r2
   83184:	e0bfeb15 	stw	r2,-84(fp)
                DisplayTime(uTimeElapsed);
   83188:	e13feb17 	ldw	r4,-84(fp)
   8318c:	00804740 	call	80474 <DisplayTime>
			DEMO_PRINTF("bSdacrdReady:%d\n",TRUE);
			DEMO_PRINTF("bEndOfFile:%d\n",FALSE);
			DEMO_PRINTF("bLastSongPressed:%d\n",FALSE);
			DEMO_PRINTF("bNextSongPressed:%d\n",FALSE);
			*/
            while(!bPlayDone && bSdacrdReady){
   83190:	e0bfe717 	ldw	r2,-100(fp)
   83194:	1000021e 	bne	r2,zero,831a0 <main+0x534>
   83198:	e0bfe617 	ldw	r2,-104(fp)
   8319c:	103f431e 	bne	r2,zero,82eac <__alt_mem_av_tri_s1_cfi_flash_0+0xfe082eac>
            DEMO_PRINTF("End while loop\n");
            DEMO_PRINTF("bPlayDone:%d\n",bPlayDone);
            DEMO_PRINTF("bSdacrdReady:%d\n",bSdacrdReady);
            */
            // while(!bPlayNextSong && bSdacrdReady)
            waveplay_stop();
   831a0:	00823440 	call	82344 <waveplay_stop>
		*/


        bool bSdacrdReady = TRUE;
        nPlayIndex = 0;
        while(bSdacrdReady){
   831a4:	e0bfe617 	ldw	r2,-104(fp)
   831a8:	103efd1e 	bne	r2,zero,82da0 <__alt_mem_av_tri_s1_cfi_flash_0+0xfe082da0>
            DEMO_PRINTF("bSdacrdReady:%d\n",bSdacrdReady);
            */
            // while(!bPlayNextSong && bSdacrdReady)
            waveplay_stop();
        }  // while(bSdacrdReady)
  } // while (1)
   831ac:	003edd06 	br	82d24 <__alt_mem_av_tri_s1_cfi_flash_0+0xfe082d24>

  return 0;
}
   831b0:	e037883a 	mov	sp,fp
   831b4:	dfc00117 	ldw	ra,4(sp)
   831b8:	df000017 	ldw	fp,0(sp)
   831bc:	dec00204 	addi	sp,sp,8
   831c0:	f800283a 	ret

000831c4 <Fat_Mount>:
bool fatSameLongFilename(alt_u16 *p1, alt_u16 *p2);




FAT_HANDLE Fat_Mount(FAT_DEVICE FatDevice, DEVICE_HANDLE hUsbDisk){
   831c4:	defffb04 	addi	sp,sp,-20
   831c8:	dfc00415 	stw	ra,16(sp)
   831cc:	df000315 	stw	fp,12(sp)
   831d0:	df000304 	addi	fp,sp,12
   831d4:	e13ffe15 	stw	r4,-8(fp)
   831d8:	e17fff15 	stw	r5,-4(fp)
    
    //Fat_Unmount();
    FAT_HANDLE hFat = 0;
   831dc:	e03ffd15 	stw	zero,-12(fp)
    
    if (FatDevice == FAT_SD_CARD){
   831e0:	e0bffe17 	ldw	r2,-8(fp)
   831e4:	1000021e 	bne	r2,zero,831f0 <Fat_Mount+0x2c>
        #ifdef SUPPORT_SD_CARD
        hFat = fatMountSdcard();
   831e8:	0085bd80 	call	85bd8 <fatMountSdcard>
   831ec:	e0bffd15 	stw	r2,-12(fp)
    }else if (FatDevice == FAT_USB_DISK){
        #ifdef SUPPORT_USB_DISK
        hFat = fatMountUsbDisk(hUsbDisk);
        #endif
    }  
    return hFat;      
   831f0:	e0bffd17 	ldw	r2,-12(fp)
        
}
   831f4:	e037883a 	mov	sp,fp
   831f8:	dfc00117 	ldw	ra,4(sp)
   831fc:	df000017 	ldw	fp,0(sp)
   83200:	dec00204 	addi	sp,sp,8
   83204:	f800283a 	ret

00083208 <Fat_Unmount>:

void Fat_Unmount(FAT_HANDLE Fat){
   83208:	defffc04 	addi	sp,sp,-16
   8320c:	dfc00315 	stw	ra,12(sp)
   83210:	df000215 	stw	fp,8(sp)
   83214:	df000204 	addi	fp,sp,8
   83218:	e13fff15 	stw	r4,-4(fp)
    VOLUME_INFO *pVol = (VOLUME_INFO *)Fat;
   8321c:	e0bfff17 	ldw	r2,-4(fp)
   83220:	e0bffe15 	stw	r2,-8(fp)
    if (!pVol)
   83224:	e0bffe17 	ldw	r2,-8(fp)
   83228:	1000011e 	bne	r2,zero,83230 <Fat_Unmount+0x28>
        return;
   8322c:	00000406 	br	83240 <Fat_Unmount+0x38>
    if (pVol->szFatTable){
        free(pVol->szFatTable);
        pVol->szFatTable = 0;
    }        
#endif //#ifdef FAT_READONLY
    pVol->bMount = FALSE;
   83230:	e0bffe17 	ldw	r2,-8(fp)
   83234:	10000415 	stw	zero,16(r2)
    
    free(pVol);  
   83238:	e13ffe17 	ldw	r4,-8(fp)
   8323c:	008cc740 	call	8cc74 <free>
}   
   83240:	e037883a 	mov	sp,fp
   83244:	dfc00117 	ldw	ra,4(sp)
   83248:	df000017 	ldw	fp,0(sp)
   8324c:	dec00204 	addi	sp,sp,8
   83250:	f800283a 	ret

00083254 <Fat_Type>:

FAT_TYPE Fat_Type(FAT_HANDLE Fat){
   83254:	defffc04 	addi	sp,sp,-16
   83258:	df000315 	stw	fp,12(sp)
   8325c:	df000304 	addi	fp,sp,12
   83260:	e13fff15 	stw	r4,-4(fp)
    VOLUME_INFO *pVol = (VOLUME_INFO *)Fat;
   83264:	e0bfff17 	ldw	r2,-4(fp)
   83268:	e0bffe15 	stw	r2,-8(fp)
    FAT_TYPE Type = FAT_UNKNOWN;
   8326c:	e03ffd15 	stw	zero,-12(fp)
    if (pVol){
   83270:	e0bffe17 	ldw	r2,-8(fp)
   83274:	10000d26 	beq	r2,zero,832ac <Fat_Type+0x58>
        if (pVol->Partition_Type == PARTITION_FAT16)
   83278:	e0bffe17 	ldw	r2,-8(fp)
   8327c:	10800317 	ldw	r2,12(r2)
   83280:	10800198 	cmpnei	r2,r2,6
   83284:	1000031e 	bne	r2,zero,83294 <Fat_Type+0x40>
            Type = FAT_FAT16;
   83288:	00800044 	movi	r2,1
   8328c:	e0bffd15 	stw	r2,-12(fp)
   83290:	00000606 	br	832ac <Fat_Type+0x58>
        else if (pVol->Partition_Type == PARTITION_FAT32)
   83294:	e0bffe17 	ldw	r2,-8(fp)
   83298:	10800317 	ldw	r2,12(r2)
   8329c:	108002d8 	cmpnei	r2,r2,11
   832a0:	1000021e 	bne	r2,zero,832ac <Fat_Type+0x58>
            Type = FAT_FAT32;
   832a4:	00800084 	movi	r2,2
   832a8:	e0bffd15 	stw	r2,-12(fp)
    }
    return Type;        
   832ac:	e0bffd17 	ldw	r2,-12(fp)
}
   832b0:	e037883a 	mov	sp,fp
   832b4:	df000017 	ldw	fp,0(sp)
   832b8:	dec00104 	addi	sp,sp,4
   832bc:	f800283a 	ret

000832c0 <Fat_FileBrowseBegin>:

bool Fat_FileBrowseBegin(FAT_HANDLE hFat, FAT_BROWSE_HANDLE *pFatBrowseHandle){
   832c0:	defffc04 	addi	sp,sp,-16
   832c4:	df000315 	stw	fp,12(sp)
   832c8:	df000304 	addi	fp,sp,12
   832cc:	e13ffe15 	stw	r4,-8(fp)
   832d0:	e17fff15 	stw	r5,-4(fp)
    VOLUME_INFO *pVol = (VOLUME_INFO *)hFat;
   832d4:	e0bffe17 	ldw	r2,-8(fp)
   832d8:	e0bffd15 	stw	r2,-12(fp)
    if (!pVol)
   832dc:	e0bffd17 	ldw	r2,-12(fp)
   832e0:	1000021e 	bne	r2,zero,832ec <Fat_FileBrowseBegin+0x2c>
        return FALSE;
   832e4:	0005883a 	mov	r2,zero
   832e8:	00000c06 	br	8331c <Fat_FileBrowseBegin+0x5c>
    if (!pVol->bMount)
   832ec:	e0bffd17 	ldw	r2,-12(fp)
   832f0:	10800417 	ldw	r2,16(r2)
   832f4:	1000021e 	bne	r2,zero,83300 <Fat_FileBrowseBegin+0x40>
        return FALSE;
   832f8:	0005883a 	mov	r2,zero
   832fc:	00000706 	br	8331c <Fat_FileBrowseBegin+0x5c>
    pFatBrowseHandle->DirectoryIndex = -1;
   83300:	e0bfff17 	ldw	r2,-4(fp)
   83304:	00ffffc4 	movi	r3,-1
   83308:	10c00015 	stw	r3,0(r2)
    pFatBrowseHandle->hFat = hFat;
   8330c:	e0bfff17 	ldw	r2,-4(fp)
   83310:	e0fffe17 	ldw	r3,-8(fp)
   83314:	10c00115 	stw	r3,4(r2)
    return TRUE;
   83318:	00800044 	movi	r2,1
}
   8331c:	e037883a 	mov	sp,fp
   83320:	df000017 	ldw	fp,0(sp)
   83324:	dec00104 	addi	sp,sp,4
   83328:	f800283a 	ret

0008332c <Fat_FileBrowseNext>:

bool Fat_FileBrowseNext(FAT_BROWSE_HANDLE *pFatBrowseHandle, FILE_CONTEXT *pFileContext){
   8332c:	defff404 	addi	sp,sp,-48
   83330:	dfc00b15 	stw	ra,44(sp)
   83334:	df000a15 	stw	fp,40(sp)
   83338:	df000a04 	addi	fp,sp,40
   8333c:	e13ffe15 	stw	r4,-8(fp)
   83340:	e17fff15 	stw	r5,-4(fp)
    bool bFind = FALSE, bError=FALSE, bLongFilename = FALSE;
   83344:	e03ff615 	stw	zero,-40(fp)
   83348:	e03ff715 	stw	zero,-36(fp)
   8334c:	e03ff815 	stw	zero,-32(fp)
    int OrderValue = 0;
   83350:	e03ff915 	stw	zero,-28(fp)
    FAT_DIRECTORY *pDir;
    //unsigned int nSecter, nSecterOffset,nByteOffset;
    VOLUME_INFO *pVol = (VOLUME_INFO *)pFatBrowseHandle->hFat;
   83354:	e0bffe17 	ldw	r2,-8(fp)
   83358:	10800117 	ldw	r2,4(r2)
   8335c:	e0bffa15 	stw	r2,-24(fp)
    
    if (!pVol)
   83360:	e0bffa17 	ldw	r2,-24(fp)
   83364:	1000021e 	bne	r2,zero,83370 <Fat_FileBrowseNext+0x44>
        return FALSE;    
   83368:	0005883a 	mov	r2,zero
   8336c:	0000f506 	br	83744 <Fat_FileBrowseNext+0x418>
    
    if (!pVol->bMount)
   83370:	e0bffa17 	ldw	r2,-24(fp)
   83374:	10800417 	ldw	r2,16(r2)
   83378:	1000021e 	bne	r2,zero,83384 <Fat_FileBrowseNext+0x58>
        return FALSE;
   8337c:	0005883a 	mov	r2,zero
   83380:	0000f006 	br	83744 <Fat_FileBrowseNext+0x418>
    
    
    do{  // search Directory Table
        pFatBrowseHandle->DirectoryIndex++;        
   83384:	e0bffe17 	ldw	r2,-8(fp)
   83388:	10800017 	ldw	r2,0(r2)
   8338c:	10c00044 	addi	r3,r2,1
   83390:	e0bffe17 	ldw	r2,-8(fp)
   83394:	10c00015 	stw	r3,0(r2)
        pDir = fatFindDirectory(pVol,pFatBrowseHandle->DirectoryIndex);
   83398:	e0bffe17 	ldw	r2,-8(fp)
   8339c:	10800017 	ldw	r2,0(r2)
   833a0:	e13ffa17 	ldw	r4,-24(fp)
   833a4:	100b883a 	mov	r5,r2
   833a8:	00855d00 	call	855d0 <fatFindDirectory>
   833ac:	e0bffb15 	stw	r2,-20(fp)
        if (!pDir)
   833b0:	e0bffb17 	ldw	r2,-20(fp)
   833b4:	1000021e 	bne	r2,zero,833c0 <Fat_FileBrowseNext+0x94>
            bError = TRUE;
   833b8:	00800044 	movi	r2,1
   833bc:	e0bff715 	stw	r2,-36(fp)
            
        if (!bError){                        
   833c0:	e0bff717 	ldw	r2,-36(fp)
   833c4:	1000d71e 	bne	r2,zero,83724 <Fat_FileBrowseNext+0x3f8>
            if (fatIsValidDir(pDir) && !fatIsUnusedDir(pDir)){
   833c8:	e13ffb17 	ldw	r4,-20(fp)
   833cc:	0084ca40 	call	84ca4 <fatIsValidDir>
   833d0:	1000d426 	beq	r2,zero,83724 <Fat_FileBrowseNext+0x3f8>
   833d4:	e13ffb17 	ldw	r4,-20(fp)
   833d8:	0084d4c0 	call	84d4c <fatIsUnusedDir>
   833dc:	1000d11e 	bne	r2,zero,83724 <Fat_FileBrowseNext+0x3f8>
                if ((pDir->Attribute & ATTR_LONG_NAME) == ATTR_LONG_NAME){
   833e0:	e0bffb17 	ldw	r2,-20(fp)
   833e4:	108002c3 	ldbu	r2,11(r2)
   833e8:	10803fcc 	andi	r2,r2,255
   833ec:	108003cc 	andi	r2,r2,15
   833f0:	108003d8 	cmpnei	r2,r2,15
   833f4:	1000521e 	bne	r2,zero,83540 <Fat_FileBrowseNext+0x214>
                    FAT_LONG_DIRECTORY *pLDIR = (FAT_LONG_DIRECTORY *)pDir;
   833f8:	e0bffb17 	ldw	r2,-20(fp)
   833fc:	e0bffc15 	stw	r2,-16(fp)
                    // check attribute
                    if ((pLDIR->LDIR_Attr & ATTR_LONG_NAME) != ATTR_LONG_NAME){
   83400:	e0bffc17 	ldw	r2,-16(fp)
   83404:	108002c3 	ldbu	r2,11(r2)
   83408:	10803fcc 	andi	r2,r2,255
   8340c:	108003cc 	andi	r2,r2,15
   83410:	108003e0 	cmpeqi	r2,r2,15
   83414:	1000031e 	bne	r2,zero,83424 <Fat_FileBrowseNext+0xf8>
                        bError = TRUE;
   83418:	00800044 	movi	r2,1
   8341c:	e0bff715 	stw	r2,-36(fp)
   83420:	00001e06 	br	8349c <Fat_FileBrowseNext+0x170>
                    }else{                        
                        // check order
                        if (OrderValue == 0){
   83424:	e0bff917 	ldw	r2,-28(fp)
   83428:	1000141e 	bne	r2,zero,8347c <Fat_FileBrowseNext+0x150>
                            // last entry
                            if (bLongFilename || ((OrderValue & LAST_LONG_ENTRY) != OrderValue))
   8342c:	e0bff817 	ldw	r2,-32(fp)
   83430:	1000041e 	bne	r2,zero,83444 <Fat_FileBrowseNext+0x118>
   83434:	e0bff917 	ldw	r2,-28(fp)
   83438:	10c0100c 	andi	r3,r2,64
   8343c:	e0bff917 	ldw	r2,-28(fp)
   83440:	18800326 	beq	r3,r2,83450 <Fat_FileBrowseNext+0x124>
                                bError = TRUE;
   83444:	00800044 	movi	r2,1
   83448:	e0bff715 	stw	r2,-36(fp)
   8344c:	00000506 	br	83464 <Fat_FileBrowseNext+0x138>
                            else
                                OrderValue = pLDIR->LDIR_Ord & 0x3F;
   83450:	e0bffc17 	ldw	r2,-16(fp)
   83454:	10800003 	ldbu	r2,0(r2)
   83458:	10803fcc 	andi	r2,r2,255
   8345c:	10800fcc 	andi	r2,r2,63
   83460:	e0bff915 	stw	r2,-28(fp)
                            memset(pFileContext->szName, 0, sizeof(pFileContext->szName));        
   83464:	e0bfff17 	ldw	r2,-4(fp)
   83468:	1009883a 	mov	r4,r2
   8346c:	000b883a 	mov	r5,zero
   83470:	01804004 	movi	r6,256
   83474:	008d5680 	call	8d568 <memset>
   83478:	00000806 	br	8349c <Fat_FileBrowseNext+0x170>
                        }else{
                            if ((pLDIR->LDIR_Ord & 0x3F) != OrderValue)
   8347c:	e0bffc17 	ldw	r2,-16(fp)
   83480:	10800003 	ldbu	r2,0(r2)
   83484:	10803fcc 	andi	r2,r2,255
   83488:	10c00fcc 	andi	r3,r2,63
   8348c:	e0bff917 	ldw	r2,-28(fp)
   83490:	18800226 	beq	r3,r2,8349c <Fat_FileBrowseNext+0x170>
                                bError = TRUE;
   83494:	00800044 	movi	r2,1
   83498:	e0bff715 	stw	r2,-36(fp)
                        }
                    }
                    
                    //                        
                    if (!bError){
   8349c:	e0bff717 	ldw	r2,-36(fp)
   834a0:	1000261e 	bne	r2,zero,8353c <Fat_FileBrowseNext+0x210>
                        int BaseOffset;
                        bLongFilename = TRUE;
   834a4:	00800044 	movi	r2,1
   834a8:	e0bff815 	stw	r2,-32(fp)
                        OrderValue--;
   834ac:	e0bff917 	ldw	r2,-28(fp)
   834b0:	10bfffc4 	addi	r2,r2,-1
   834b4:	e0bff915 	stw	r2,-28(fp)
                        BaseOffset = OrderValue * 26;
   834b8:	e0bff917 	ldw	r2,-28(fp)
   834bc:	108006a4 	muli	r2,r2,26
   834c0:	e0bffd15 	stw	r2,-12(fp)
                        // cast filename
                        memcpy(pFileContext->szName+BaseOffset, pLDIR->LDIR_Name1, 10);
   834c4:	e0bffd17 	ldw	r2,-12(fp)
   834c8:	e0ffff17 	ldw	r3,-4(fp)
   834cc:	1887883a 	add	r3,r3,r2
   834d0:	e0bffc17 	ldw	r2,-16(fp)
   834d4:	10800044 	addi	r2,r2,1
   834d8:	1809883a 	mov	r4,r3
   834dc:	100b883a 	mov	r5,r2
   834e0:	01800284 	movi	r6,10
   834e4:	008d4300 	call	8d430 <memcpy>
                        memcpy(pFileContext->szName+BaseOffset+10, pLDIR->LDIR_Name2, 12);
   834e8:	e0bffd17 	ldw	r2,-12(fp)
   834ec:	10800284 	addi	r2,r2,10
   834f0:	e0ffff17 	ldw	r3,-4(fp)
   834f4:	1887883a 	add	r3,r3,r2
   834f8:	e0bffc17 	ldw	r2,-16(fp)
   834fc:	10800384 	addi	r2,r2,14
   83500:	1809883a 	mov	r4,r3
   83504:	100b883a 	mov	r5,r2
   83508:	01800304 	movi	r6,12
   8350c:	008d4300 	call	8d430 <memcpy>
                        memcpy(pFileContext->szName+BaseOffset+22, pLDIR->LDIR_Name3, 4);
   83510:	e0bffd17 	ldw	r2,-12(fp)
   83514:	10800584 	addi	r2,r2,22
   83518:	e0ffff17 	ldw	r3,-4(fp)
   8351c:	1887883a 	add	r3,r3,r2
   83520:	e0bffc17 	ldw	r2,-16(fp)
   83524:	10800704 	addi	r2,r2,28
   83528:	1809883a 	mov	r4,r3
   8352c:	100b883a 	mov	r5,r2
   83530:	01800104 	movi	r6,4
   83534:	008d4300 	call	8d430 <memcpy>
   83538:	00007a06 	br	83724 <Fat_FileBrowseNext+0x3f8>
   8353c:	00007906 	br	83724 <Fat_FileBrowseNext+0x3f8>
                    }                        
                }else{
                    if (bLongFilename){
   83540:	e0bff817 	ldw	r2,-32(fp)
   83544:	10000e26 	beq	r2,zero,83580 <Fat_FileBrowseNext+0x254>
                        pFileContext->Attribute = ATTR_LONG_NAME;
   83548:	e0bfff17 	ldw	r2,-4(fp)
   8354c:	00c003c4 	movi	r3,15
   83550:	10c04505 	stb	r3,276(r2)
                        if ((pDir->Attribute & (ATTR_ARCHIVE | ATTR_DIRECTORY)) == 0)
   83554:	e0bffb17 	ldw	r2,-20(fp)
   83558:	108002c3 	ldbu	r2,11(r2)
   8355c:	10803fcc 	andi	r2,r2,255
   83560:	10800c0c 	andi	r2,r2,48
   83564:	1000031e 	bne	r2,zero,83574 <Fat_FileBrowseNext+0x248>
                            bError = TRUE;
   83568:	00800044 	movi	r2,1
   8356c:	e0bff715 	stw	r2,-36(fp)
   83570:	00000906 	br	83598 <Fat_FileBrowseNext+0x26c>
                        else    
                            bFind = TRUE;
   83574:	00800044 	movi	r2,1
   83578:	e0bff615 	stw	r2,-40(fp)
   8357c:	00000606 	br	83598 <Fat_FileBrowseNext+0x26c>
                    }else{
                        fatComposeShortFilename(pDir, pFileContext->szName);
   83580:	e0bfff17 	ldw	r2,-4(fp)
   83584:	e13ffb17 	ldw	r4,-20(fp)
   83588:	100b883a 	mov	r5,r2
   8358c:	00838580 	call	83858 <fatComposeShortFilename>
                        bFind = TRUE;
   83590:	00800044 	movi	r2,1
   83594:	e0bff615 	stw	r2,-40(fp)
                    }
                    
                    if (bFind){
   83598:	e0bff617 	ldw	r2,-40(fp)
   8359c:	10006126 	beq	r2,zero,83724 <Fat_FileBrowseNext+0x3f8>
                        // my ext
                        pFileContext->bLongFilename = bLongFilename;
   835a0:	e0bfff17 	ldw	r2,-4(fp)
   835a4:	e0fff817 	ldw	r3,-32(fp)
   835a8:	10c04015 	stw	r3,256(r2)
                        pFileContext->bFile = (pDir->Attribute & ATTR_ARCHIVE)?TRUE:FALSE;
   835ac:	e0bffb17 	ldw	r2,-20(fp)
   835b0:	108002c3 	ldbu	r2,11(r2)
   835b4:	10803fcc 	andi	r2,r2,255
   835b8:	1080080c 	andi	r2,r2,32
   835bc:	1004c03a 	cmpne	r2,r2,zero
   835c0:	10c03fcc 	andi	r3,r2,255
   835c4:	e0bfff17 	ldw	r2,-4(fp)
   835c8:	10c04115 	stw	r3,260(r2)
                        pFileContext->bDirectory = (pDir->Attribute & ATTR_DIRECTORY)?TRUE:FALSE;
   835cc:	e0bffb17 	ldw	r2,-20(fp)
   835d0:	108002c3 	ldbu	r2,11(r2)
   835d4:	10803fcc 	andi	r2,r2,255
   835d8:	1080040c 	andi	r2,r2,16
   835dc:	1004c03a 	cmpne	r2,r2,zero
   835e0:	10c03fcc 	andi	r3,r2,255
   835e4:	e0bfff17 	ldw	r2,-4(fp)
   835e8:	10c04215 	stw	r3,264(r2)
                        pFileContext->bVolume = (pDir->Attribute & ATTR_VOLUME_ID)?TRUE:FALSE;
   835ec:	e0bffb17 	ldw	r2,-20(fp)
   835f0:	108002c3 	ldbu	r2,11(r2)
   835f4:	10803fcc 	andi	r2,r2,255
   835f8:	1080020c 	andi	r2,r2,8
   835fc:	1004c03a 	cmpne	r2,r2,zero
   83600:	10c03fcc 	andi	r3,r2,255
   83604:	e0bfff17 	ldw	r2,-4(fp)
   83608:	10c04315 	stw	r3,268(r2)
                        pFileContext->DirEntryIndex = pFatBrowseHandle->DirectoryIndex; // add in v2.0.0
   8360c:	e0bffe17 	ldw	r2,-8(fp)
   83610:	10c00017 	ldw	r3,0(r2)
   83614:	e0bfff17 	ldw	r2,-4(fp)
   83618:	10c04415 	stw	r3,272(r2)
                        
                        //
                        pFileContext->Attribute = pDir->Attribute;
   8361c:	e0bffb17 	ldw	r2,-20(fp)
   83620:	10c002c3 	ldbu	r3,11(r2)
   83624:	e0bfff17 	ldw	r2,-4(fp)
   83628:	10c04505 	stb	r3,276(r2)
                        pFileContext->CreateTime = pDir->CreateTime;
   8362c:	e0bffb17 	ldw	r2,-20(fp)
   83630:	10c00383 	ldbu	r3,14(r2)
   83634:	108003c3 	ldbu	r2,15(r2)
   83638:	1004923a 	slli	r2,r2,8
   8363c:	10c4b03a 	or	r2,r2,r3
   83640:	1007883a 	mov	r3,r2
   83644:	e0bfff17 	ldw	r2,-4(fp)
   83648:	10c0458d 	sth	r3,278(r2)
                        pFileContext->LastAccessDate = pDir->LastAccessDate;
   8364c:	e0bffb17 	ldw	r2,-20(fp)
   83650:	10c00483 	ldbu	r3,18(r2)
   83654:	108004c3 	ldbu	r2,19(r2)
   83658:	1004923a 	slli	r2,r2,8
   8365c:	10c4b03a 	or	r2,r2,r3
   83660:	1007883a 	mov	r3,r2
   83664:	e0bfff17 	ldw	r2,-4(fp)
   83668:	10c0468d 	sth	r3,282(r2)
                        pFileContext->FirstLogicalClusterHi = pDir->FirstLogicalClusterHi;
   8366c:	e0bffb17 	ldw	r2,-20(fp)
   83670:	10c00503 	ldbu	r3,20(r2)
   83674:	10800543 	ldbu	r2,21(r2)
   83678:	1004923a 	slli	r2,r2,8
   8367c:	10c4b03a 	or	r2,r2,r3
   83680:	1007883a 	mov	r3,r2
   83684:	e0bfff17 	ldw	r2,-4(fp)
   83688:	10c0470d 	sth	r3,284(r2)
                        pFileContext->LastWriteTime = pDir->LastWriteTime;
   8368c:	e0bffb17 	ldw	r2,-20(fp)
   83690:	10c00583 	ldbu	r3,22(r2)
   83694:	108005c3 	ldbu	r2,23(r2)
   83698:	1004923a 	slli	r2,r2,8
   8369c:	10c4b03a 	or	r2,r2,r3
   836a0:	1007883a 	mov	r3,r2
   836a4:	e0bfff17 	ldw	r2,-4(fp)
   836a8:	10c0478d 	sth	r3,286(r2)
                        pFileContext->LastWriteDate = pDir->LastWriteDate;
   836ac:	e0bffb17 	ldw	r2,-20(fp)
   836b0:	10c00603 	ldbu	r3,24(r2)
   836b4:	10800643 	ldbu	r2,25(r2)
   836b8:	1004923a 	slli	r2,r2,8
   836bc:	10c4b03a 	or	r2,r2,r3
   836c0:	1007883a 	mov	r3,r2
   836c4:	e0bfff17 	ldw	r2,-4(fp)
   836c8:	10c0480d 	sth	r3,288(r2)
                        pFileContext->FirstLogicalCluster = pDir->FirstLogicalCluster;
   836cc:	e0bffb17 	ldw	r2,-20(fp)
   836d0:	10c00683 	ldbu	r3,26(r2)
   836d4:	108006c3 	ldbu	r2,27(r2)
   836d8:	1004923a 	slli	r2,r2,8
   836dc:	10c4b03a 	or	r2,r2,r3
   836e0:	1007883a 	mov	r3,r2
   836e4:	e0bfff17 	ldw	r2,-4(fp)
   836e8:	10c0488d 	sth	r3,290(r2)
                        pFileContext->FileSize = pDir->FileSize;
   836ec:	e0bffb17 	ldw	r2,-20(fp)
   836f0:	10c00703 	ldbu	r3,28(r2)
   836f4:	11000743 	ldbu	r4,29(r2)
   836f8:	2008923a 	slli	r4,r4,8
   836fc:	20c6b03a 	or	r3,r4,r3
   83700:	11000783 	ldbu	r4,30(r2)
   83704:	2008943a 	slli	r4,r4,16
   83708:	20c6b03a 	or	r3,r4,r3
   8370c:	108007c3 	ldbu	r2,31(r2)
   83710:	1004963a 	slli	r2,r2,24
   83714:	10c4b03a 	or	r2,r2,r3
   83718:	1007883a 	mov	r3,r2
   8371c:	e0bfff17 	ldw	r2,-4(fp)
   83720:	10c04915 	stw	r3,292(r2)
                    }                        
                }                    
            }                
        }            
    }while (!bFind && !fatIsLastDir(pDir) && !bError);
   83724:	e0bff617 	ldw	r2,-40(fp)
   83728:	1000051e 	bne	r2,zero,83740 <Fat_FileBrowseNext+0x414>
   8372c:	e13ffb17 	ldw	r4,-20(fp)
   83730:	0084c600 	call	84c60 <fatIsLastDir>
   83734:	1000021e 	bne	r2,zero,83740 <Fat_FileBrowseNext+0x414>
   83738:	e0bff717 	ldw	r2,-36(fp)
   8373c:	103f1126 	beq	r2,zero,83384 <__alt_mem_av_tri_s1_cfi_flash_0+0xfe083384>
    
    return bFind;
   83740:	e0bff617 	ldw	r2,-40(fp)
    
}
   83744:	e037883a 	mov	sp,fp
   83748:	dfc00117 	ldw	ra,4(sp)
   8374c:	df000017 	ldw	fp,0(sp)
   83750:	dec00204 	addi	sp,sp,8
   83754:	f800283a 	ret

00083758 <Fat_FileCount>:


unsigned int Fat_FileCount(FAT_HANDLE Fat){
   83758:	deffb004 	addi	sp,sp,-320
   8375c:	dfc04f15 	stw	ra,316(sp)
   83760:	df004e15 	stw	fp,312(sp)
   83764:	df004e04 	addi	fp,sp,312
   83768:	e13fff15 	stw	r4,-4(fp)
    unsigned int nCount = 0;
   8376c:	e03fb215 	stw	zero,-312(fp)
    FAT_BROWSE_HANDLE hBrowse;
    FILE_CONTEXT FileContext;
    
    if (Fat_FileBrowseBegin(Fat, &hBrowse)){
   83770:	e0bfb304 	addi	r2,fp,-308
   83774:	e13fff17 	ldw	r4,-4(fp)
   83778:	100b883a 	mov	r5,r2
   8377c:	00832c00 	call	832c0 <Fat_FileBrowseBegin>
   83780:	10000a26 	beq	r2,zero,837ac <Fat_FileCount+0x54>
        while(Fat_FileBrowseNext(&hBrowse, &FileContext))
   83784:	00000306 	br	83794 <Fat_FileCount+0x3c>
            nCount++;
   83788:	e0bfb217 	ldw	r2,-312(fp)
   8378c:	10800044 	addi	r2,r2,1
   83790:	e0bfb215 	stw	r2,-312(fp)
    unsigned int nCount = 0;
    FAT_BROWSE_HANDLE hBrowse;
    FILE_CONTEXT FileContext;
    
    if (Fat_FileBrowseBegin(Fat, &hBrowse)){
        while(Fat_FileBrowseNext(&hBrowse, &FileContext))
   83794:	e0ffb304 	addi	r3,fp,-308
   83798:	e0bfb504 	addi	r2,fp,-300
   8379c:	1809883a 	mov	r4,r3
   837a0:	100b883a 	mov	r5,r2
   837a4:	008332c0 	call	8332c <Fat_FileBrowseNext>
   837a8:	103ff71e 	bne	r2,zero,83788 <__alt_mem_av_tri_s1_cfi_flash_0+0xfe083788>
            nCount++;
    }
    
    return nCount;
   837ac:	e0bfb217 	ldw	r2,-312(fp)
}
   837b0:	e037883a 	mov	sp,fp
   837b4:	dfc00117 	ldw	ra,4(sp)
   837b8:	df000017 	ldw	fp,0(sp)
   837bc:	dec00204 	addi	sp,sp,8
   837c0:	f800283a 	ret

000837c4 <fatSameLongFilename>:

bool fatSameLongFilename(alt_u16 *p1, alt_u16 *p2){
   837c4:	defffc04 	addi	sp,sp,-16
   837c8:	df000315 	stw	fp,12(sp)
   837cc:	df000304 	addi	fp,sp,12
   837d0:	e13ffe15 	stw	r4,-8(fp)
   837d4:	e17fff15 	stw	r5,-4(fp)
    bool bSame = TRUE;
   837d8:	00800044 	movi	r2,1
   837dc:	e0bffd15 	stw	r2,-12(fp)
    
    while(bSame && ((*p1 != 0) || (*p2 != 0))){
   837e0:	00000e06 	br	8381c <fatSameLongFilename+0x58>
        if (*p1 != *p2){
   837e4:	e0bffe17 	ldw	r2,-8(fp)
   837e8:	10c0000b 	ldhu	r3,0(r2)
   837ec:	e0bfff17 	ldw	r2,-4(fp)
   837f0:	1080000b 	ldhu	r2,0(r2)
   837f4:	18ffffcc 	andi	r3,r3,65535
   837f8:	10bfffcc 	andi	r2,r2,65535
   837fc:	18800126 	beq	r3,r2,83804 <fatSameLongFilename+0x40>
            bSame = FALSE;
   83800:	e03ffd15 	stw	zero,-12(fp)
        }
        p1++;
   83804:	e0bffe17 	ldw	r2,-8(fp)
   83808:	10800084 	addi	r2,r2,2
   8380c:	e0bffe15 	stw	r2,-8(fp)
        p2++;
   83810:	e0bfff17 	ldw	r2,-4(fp)
   83814:	10800084 	addi	r2,r2,2
   83818:	e0bfff15 	stw	r2,-4(fp)
}

bool fatSameLongFilename(alt_u16 *p1, alt_u16 *p2){
    bool bSame = TRUE;
    
    while(bSame && ((*p1 != 0) || (*p2 != 0))){
   8381c:	e0bffd17 	ldw	r2,-12(fp)
   83820:	10000826 	beq	r2,zero,83844 <fatSameLongFilename+0x80>
   83824:	e0bffe17 	ldw	r2,-8(fp)
   83828:	1080000b 	ldhu	r2,0(r2)
   8382c:	10bfffcc 	andi	r2,r2,65535
   83830:	103fec1e 	bne	r2,zero,837e4 <__alt_mem_av_tri_s1_cfi_flash_0+0xfe0837e4>
   83834:	e0bfff17 	ldw	r2,-4(fp)
   83838:	1080000b 	ldhu	r2,0(r2)
   8383c:	10bfffcc 	andi	r2,r2,65535
   83840:	103fe81e 	bne	r2,zero,837e4 <__alt_mem_av_tri_s1_cfi_flash_0+0xfe0837e4>
        p1++;
        p2++;
        
    }
    
    return bSame;
   83844:	e0bffd17 	ldw	r2,-12(fp)
}
   83848:	e037883a 	mov	sp,fp
   8384c:	df000017 	ldw	fp,0(sp)
   83850:	dec00104 	addi	sp,sp,4
   83854:	f800283a 	ret

00083858 <fatComposeShortFilename>:


void fatComposeShortFilename(FAT_DIRECTORY *pDir, char *szFilename){
   83858:	defffb04 	addi	sp,sp,-20
   8385c:	df000415 	stw	fp,16(sp)
   83860:	df000404 	addi	fp,sp,16
   83864:	e13ffe15 	stw	r4,-8(fp)
   83868:	e17fff15 	stw	r5,-4(fp)
    int i,nPos=0;
   8386c:	e03ffd15 	stw	zero,-12(fp)
    
    i=0;
   83870:	e03ffc15 	stw	zero,-16(fp)
    while(i < 8 && pDir->Name[i] != 0 && pDir->Name[i] != ' ')
   83874:	00000d06 	br	838ac <fatComposeShortFilename+0x54>
        szFilename[nPos++] = pDir->Name[i++];
   83878:	e0bffd17 	ldw	r2,-12(fp)
   8387c:	10c00044 	addi	r3,r2,1
   83880:	e0fffd15 	stw	r3,-12(fp)
   83884:	1007883a 	mov	r3,r2
   83888:	e0bfff17 	ldw	r2,-4(fp)
   8388c:	10c7883a 	add	r3,r2,r3
   83890:	e0bffc17 	ldw	r2,-16(fp)
   83894:	11000044 	addi	r4,r2,1
   83898:	e13ffc15 	stw	r4,-16(fp)
   8389c:	e13ffe17 	ldw	r4,-8(fp)
   838a0:	2085883a 	add	r2,r4,r2
   838a4:	10800003 	ldbu	r2,0(r2)
   838a8:	18800005 	stb	r2,0(r3)

void fatComposeShortFilename(FAT_DIRECTORY *pDir, char *szFilename){
    int i,nPos=0;
    
    i=0;
    while(i < 8 && pDir->Name[i] != 0 && pDir->Name[i] != ' ')
   838ac:	e0bffc17 	ldw	r2,-16(fp)
   838b0:	10800208 	cmpgei	r2,r2,8
   838b4:	1000111e 	bne	r2,zero,838fc <fatComposeShortFilename+0xa4>
   838b8:	e0fffe17 	ldw	r3,-8(fp)
   838bc:	e0bffc17 	ldw	r2,-16(fp)
   838c0:	1885883a 	add	r2,r3,r2
   838c4:	10800003 	ldbu	r2,0(r2)
   838c8:	10803fcc 	andi	r2,r2,255
   838cc:	1080201c 	xori	r2,r2,128
   838d0:	10bfe004 	addi	r2,r2,-128
   838d4:	10000926 	beq	r2,zero,838fc <fatComposeShortFilename+0xa4>
   838d8:	e0fffe17 	ldw	r3,-8(fp)
   838dc:	e0bffc17 	ldw	r2,-16(fp)
   838e0:	1885883a 	add	r2,r3,r2
   838e4:	10800003 	ldbu	r2,0(r2)
   838e8:	10803fcc 	andi	r2,r2,255
   838ec:	1080201c 	xori	r2,r2,128
   838f0:	10bfe004 	addi	r2,r2,-128
   838f4:	10800818 	cmpnei	r2,r2,32
   838f8:	103fdf1e 	bne	r2,zero,83878 <__alt_mem_av_tri_s1_cfi_flash_0+0xfe083878>
        szFilename[nPos++] = pDir->Name[i++];
    
    if (pDir->Attribute & (ATTR_ARCHIVE | ATTR_DIRECTORY)){
   838fc:	e0bffe17 	ldw	r2,-8(fp)
   83900:	108002c3 	ldbu	r2,11(r2)
   83904:	10803fcc 	andi	r2,r2,255
   83908:	10800c0c 	andi	r2,r2,48
   8390c:	10003326 	beq	r2,zero,839dc <fatComposeShortFilename+0x184>
        if (pDir->Attribute & (ATTR_ARCHIVE | ATTR_DIRECTORY))     
   83910:	e0bffe17 	ldw	r2,-8(fp)
   83914:	108002c3 	ldbu	r2,11(r2)
   83918:	10803fcc 	andi	r2,r2,255
   8391c:	10800c0c 	andi	r2,r2,48
   83920:	10000826 	beq	r2,zero,83944 <fatComposeShortFilename+0xec>
            szFilename[nPos++] = '.';   
   83924:	e0bffd17 	ldw	r2,-12(fp)
   83928:	10c00044 	addi	r3,r2,1
   8392c:	e0fffd15 	stw	r3,-12(fp)
   83930:	1007883a 	mov	r3,r2
   83934:	e0bfff17 	ldw	r2,-4(fp)
   83938:	10c5883a 	add	r2,r2,r3
   8393c:	00c00b84 	movi	r3,46
   83940:	10c00005 	stb	r3,0(r2)
        i=0;
   83944:	e03ffc15 	stw	zero,-16(fp)
        while(i < 3 && pDir->Extension[i] != 0 && pDir->Extension[i] != ' ')
   83948:	00000e06 	br	83984 <fatComposeShortFilename+0x12c>
            szFilename[nPos++] = pDir->Extension[i++];
   8394c:	e0bffd17 	ldw	r2,-12(fp)
   83950:	10c00044 	addi	r3,r2,1
   83954:	e0fffd15 	stw	r3,-12(fp)
   83958:	1007883a 	mov	r3,r2
   8395c:	e0bfff17 	ldw	r2,-4(fp)
   83960:	10c7883a 	add	r3,r2,r3
   83964:	e0bffc17 	ldw	r2,-16(fp)
   83968:	11000044 	addi	r4,r2,1
   8396c:	e13ffc15 	stw	r4,-16(fp)
   83970:	e13ffe17 	ldw	r4,-8(fp)
   83974:	2085883a 	add	r2,r4,r2
   83978:	10800204 	addi	r2,r2,8
   8397c:	10800003 	ldbu	r2,0(r2)
   83980:	18800005 	stb	r2,0(r3)
    
    if (pDir->Attribute & (ATTR_ARCHIVE | ATTR_DIRECTORY)){
        if (pDir->Attribute & (ATTR_ARCHIVE | ATTR_DIRECTORY))     
            szFilename[nPos++] = '.';   
        i=0;
        while(i < 3 && pDir->Extension[i] != 0 && pDir->Extension[i] != ' ')
   83984:	e0bffc17 	ldw	r2,-16(fp)
   83988:	108000c8 	cmpgei	r2,r2,3
   8398c:	1000131e 	bne	r2,zero,839dc <fatComposeShortFilename+0x184>
   83990:	e0fffe17 	ldw	r3,-8(fp)
   83994:	e0bffc17 	ldw	r2,-16(fp)
   83998:	1885883a 	add	r2,r3,r2
   8399c:	10800204 	addi	r2,r2,8
   839a0:	10800003 	ldbu	r2,0(r2)
   839a4:	10803fcc 	andi	r2,r2,255
   839a8:	1080201c 	xori	r2,r2,128
   839ac:	10bfe004 	addi	r2,r2,-128
   839b0:	10000a26 	beq	r2,zero,839dc <fatComposeShortFilename+0x184>
   839b4:	e0fffe17 	ldw	r3,-8(fp)
   839b8:	e0bffc17 	ldw	r2,-16(fp)
   839bc:	1885883a 	add	r2,r3,r2
   839c0:	10800204 	addi	r2,r2,8
   839c4:	10800003 	ldbu	r2,0(r2)
   839c8:	10803fcc 	andi	r2,r2,255
   839cc:	1080201c 	xori	r2,r2,128
   839d0:	10bfe004 	addi	r2,r2,-128
   839d4:	10800818 	cmpnei	r2,r2,32
   839d8:	103fdc1e 	bne	r2,zero,8394c <__alt_mem_av_tri_s1_cfi_flash_0+0xfe08394c>
            szFilename[nPos++] = pDir->Extension[i++];
    }            
    szFilename[nPos++] = 0;
   839dc:	e0bffd17 	ldw	r2,-12(fp)
   839e0:	10c00044 	addi	r3,r2,1
   839e4:	e0fffd15 	stw	r3,-12(fp)
   839e8:	1007883a 	mov	r3,r2
   839ec:	e0bfff17 	ldw	r2,-4(fp)
   839f0:	10c5883a 	add	r2,r2,r3
   839f4:	10000005 	stb	zero,0(r2)
}
   839f8:	e037883a 	mov	sp,fp
   839fc:	df000017 	ldw	fp,0(sp)
   83a00:	dec00104 	addi	sp,sp,4
   83a04:	f800283a 	ret

00083a08 <Fat_FileExist>:





bool Fat_FileExist(FAT_HANDLE Fat, const char *pFilename){
   83a08:	deffaf04 	addi	sp,sp,-324
   83a0c:	dfc05015 	stw	ra,320(sp)
   83a10:	df004f15 	stw	fp,316(sp)
   83a14:	df004f04 	addi	fp,sp,316
   83a18:	e13ffe15 	stw	r4,-8(fp)
   83a1c:	e17fff15 	stw	r5,-4(fp)
    bool bFind = FALSE;
   83a20:	e03fb115 	stw	zero,-316(fp)
    FAT_BROWSE_HANDLE hBrowse;     
    FILE_CONTEXT FileContext;
    if (Fat_FileBrowseBegin(Fat, &hBrowse)){
   83a24:	e0bfb204 	addi	r2,fp,-312
   83a28:	e13ffe17 	ldw	r4,-8(fp)
   83a2c:	100b883a 	mov	r5,r2
   83a30:	00832c00 	call	832c0 <Fat_FileBrowseBegin>
   83a34:	10001a26 	beq	r2,zero,83aa0 <Fat_FileExist+0x98>
        while (!bFind && Fat_FileBrowseNext(&hBrowse, &FileContext)){
   83a38:	00000f06 	br	83a78 <Fat_FileExist+0x70>
            if (FileContext.bLongFilename){
   83a3c:	e0bff417 	ldw	r2,-48(fp)
   83a40:	10000626 	beq	r2,zero,83a5c <Fat_FileExist+0x54>
                bFind = fatSameLongFilename((alt_u16 *)FileContext.szName, (alt_u16 *)pFilename);
   83a44:	e0bfb404 	addi	r2,fp,-304
   83a48:	1009883a 	mov	r4,r2
   83a4c:	e17fff17 	ldw	r5,-4(fp)
   83a50:	00837c40 	call	837c4 <fatSameLongFilename>
   83a54:	e0bfb115 	stw	r2,-316(fp)
   83a58:	00000706 	br	83a78 <Fat_FileExist+0x70>
            }else{
                if (strcmpi(FileContext.szName, pFilename) == 0)
   83a5c:	e0bfb404 	addi	r2,fp,-304
   83a60:	1009883a 	mov	r4,r2
   83a64:	e17fff17 	ldw	r5,-4(fp)
   83a68:	008dc540 	call	8dc54 <strcasecmp>
   83a6c:	1000021e 	bne	r2,zero,83a78 <Fat_FileExist+0x70>
                    bFind = TRUE;
   83a70:	00800044 	movi	r2,1
   83a74:	e0bfb115 	stw	r2,-316(fp)
bool Fat_FileExist(FAT_HANDLE Fat, const char *pFilename){
    bool bFind = FALSE;
    FAT_BROWSE_HANDLE hBrowse;     
    FILE_CONTEXT FileContext;
    if (Fat_FileBrowseBegin(Fat, &hBrowse)){
        while (!bFind && Fat_FileBrowseNext(&hBrowse, &FileContext)){
   83a78:	e0bfb117 	ldw	r2,-316(fp)
   83a7c:	1000061e 	bne	r2,zero,83a98 <Fat_FileExist+0x90>
   83a80:	e0ffb204 	addi	r3,fp,-312
   83a84:	e0bfb404 	addi	r2,fp,-304
   83a88:	1809883a 	mov	r4,r3
   83a8c:	100b883a 	mov	r5,r2
   83a90:	008332c0 	call	8332c <Fat_FileBrowseNext>
   83a94:	103fe91e 	bne	r2,zero,83a3c <__alt_mem_av_tri_s1_cfi_flash_0+0xfe083a3c>
            }else{
                if (strcmpi(FileContext.szName, pFilename) == 0)
                    bFind = TRUE;
            }    
        } // while 
        Fat_FileClose(Fat); 
   83a98:	e13ffe17 	ldw	r4,-8(fp)
   83a9c:	00842b40 	call	842b4 <Fat_FileClose>
    }
    return bFind;            
   83aa0:	e0bfb117 	ldw	r2,-316(fp)
}    
   83aa4:	e037883a 	mov	sp,fp
   83aa8:	dfc00117 	ldw	ra,4(sp)
   83aac:	df000017 	ldw	fp,0(sp)
   83ab0:	dec00204 	addi	sp,sp,8
   83ab4:	f800283a 	ret

00083ab8 <Fat_FileOpen>:
 
// File Access
FAT_FILE_HANDLE Fat_FileOpen(FAT_HANDLE Fat, const char *pFilename){
   83ab8:	deff6b04 	addi	sp,sp,-596
   83abc:	dfc09415 	stw	ra,592(sp)
   83ac0:	df009315 	stw	fp,588(sp)
   83ac4:	df009304 	addi	fp,sp,588
   83ac8:	e13ffe15 	stw	r4,-8(fp)
   83acc:	e17fff15 	stw	r5,-4(fp)
    bool bFind = FALSE;
   83ad0:	e03f6d15 	stw	zero,-588(fp)
    FAT_BROWSE_HANDLE hBrowse;     
    FILE_CONTEXT FileContext;
    FAT_FILE_INFO *pFile = 0;
   83ad4:	e03f6e15 	stw	zero,-584(fp)
    int nPos = 0;
   83ad8:	e03f6f15 	stw	zero,-580(fp)
    char szWaveFilename[MAX_FILENAME_LENGTH];
    
    if (Fat_FileBrowseBegin(Fat, &hBrowse)){
   83adc:	e0bf7204 	addi	r2,fp,-568
   83ae0:	e13ffe17 	ldw	r4,-8(fp)
   83ae4:	100b883a 	mov	r5,r2
   83ae8:	00832c00 	call	832c0 <Fat_FileBrowseBegin>
   83aec:	10007426 	beq	r2,zero,83cc0 <Fat_FileOpen+0x208>
        while (!bFind && Fat_FileBrowseNext(&hBrowse, &FileContext)){
   83af0:	00004c06 	br	83c24 <Fat_FileOpen+0x16c>
            if (FileContext.bLongFilename){
   83af4:	e0bfb417 	ldw	r2,-304(fp)
   83af8:	10004326 	beq	r2,zero,83c08 <Fat_FileOpen+0x150>
                //bFind = fatSameLongFilename((alt_u16 *)FileContext.szName, (alt_u16 *)pFilename);
                nPos = 0;
   83afc:	e03f6f15 	stw	zero,-580(fp)
                alt_u16 *pData16;
                alt_u8 *pData8;
                pData16 = (alt_u16 *)FileContext.szName;
   83b00:	e0bf7404 	addi	r2,fp,-560
   83b04:	e0bf7015 	stw	r2,-576(fp)
                pData8 = FileContext.szName;
   83b08:	e0bf7404 	addi	r2,fp,-560
   83b0c:	e0bf7115 	stw	r2,-572(fp)
                while(*pData16){
   83b10:	00002d06 	br	83bc8 <Fat_FileOpen+0x110>
                    if (*pData8 && *pData8 != ' ')
   83b14:	e0bf7117 	ldw	r2,-572(fp)
   83b18:	10800003 	ldbu	r2,0(r2)
   83b1c:	10803fcc 	andi	r2,r2,255
   83b20:	10000e26 	beq	r2,zero,83b5c <Fat_FileOpen+0xa4>
   83b24:	e0bf7117 	ldw	r2,-572(fp)
   83b28:	10800003 	ldbu	r2,0(r2)
   83b2c:	10803fcc 	andi	r2,r2,255
   83b30:	10800820 	cmpeqi	r2,r2,32
   83b34:	1000091e 	bne	r2,zero,83b5c <Fat_FileOpen+0xa4>
                        szWaveFilename[nPos++] = *pData8;
   83b38:	e0bf6f17 	ldw	r2,-580(fp)
   83b3c:	10c00044 	addi	r3,r2,1
   83b40:	e0ff6f15 	stw	r3,-580(fp)
   83b44:	e0ff7117 	ldw	r3,-572(fp)
   83b48:	18c00003 	ldbu	r3,0(r3)
   83b4c:	1809883a 	mov	r4,r3
   83b50:	e0ffbe04 	addi	r3,fp,-264
   83b54:	1885883a 	add	r2,r3,r2
   83b58:	11000005 	stb	r4,0(r2)
                    pData8++;
   83b5c:	e0bf7117 	ldw	r2,-572(fp)
   83b60:	10800044 	addi	r2,r2,1
   83b64:	e0bf7115 	stw	r2,-572(fp)
                    if (*pData8 && *pData8 != ' ')
   83b68:	e0bf7117 	ldw	r2,-572(fp)
   83b6c:	10800003 	ldbu	r2,0(r2)
   83b70:	10803fcc 	andi	r2,r2,255
   83b74:	10000e26 	beq	r2,zero,83bb0 <Fat_FileOpen+0xf8>
   83b78:	e0bf7117 	ldw	r2,-572(fp)
   83b7c:	10800003 	ldbu	r2,0(r2)
   83b80:	10803fcc 	andi	r2,r2,255
   83b84:	10800820 	cmpeqi	r2,r2,32
   83b88:	1000091e 	bne	r2,zero,83bb0 <Fat_FileOpen+0xf8>
                        szWaveFilename[nPos++] = *pData8;
   83b8c:	e0bf6f17 	ldw	r2,-580(fp)
   83b90:	10c00044 	addi	r3,r2,1
   83b94:	e0ff6f15 	stw	r3,-580(fp)
   83b98:	e0ff7117 	ldw	r3,-572(fp)
   83b9c:	18c00003 	ldbu	r3,0(r3)
   83ba0:	1809883a 	mov	r4,r3
   83ba4:	e0ffbe04 	addi	r3,fp,-264
   83ba8:	1885883a 	add	r2,r3,r2
   83bac:	11000005 	stb	r4,0(r2)
                    pData8++;                    
   83bb0:	e0bf7117 	ldw	r2,-572(fp)
   83bb4:	10800044 	addi	r2,r2,1
   83bb8:	e0bf7115 	stw	r2,-572(fp)
                    //    
                    pData16++;
   83bbc:	e0bf7017 	ldw	r2,-576(fp)
   83bc0:	10800084 	addi	r2,r2,2
   83bc4:	e0bf7015 	stw	r2,-576(fp)
                nPos = 0;
                alt_u16 *pData16;
                alt_u8 *pData8;
                pData16 = (alt_u16 *)FileContext.szName;
                pData8 = FileContext.szName;
                while(*pData16){
   83bc8:	e0bf7017 	ldw	r2,-576(fp)
   83bcc:	1080000b 	ldhu	r2,0(r2)
   83bd0:	10bfffcc 	andi	r2,r2,65535
   83bd4:	103fcf1e 	bne	r2,zero,83b14 <__alt_mem_av_tri_s1_cfi_flash_0+0xfe083b14>
                        szWaveFilename[nPos++] = *pData8;
                    pData8++;                    
                    //    
                    pData16++;
                }
                szWaveFilename[nPos] = 0;
   83bd8:	e0ffbe04 	addi	r3,fp,-264
   83bdc:	e0bf6f17 	ldw	r2,-580(fp)
   83be0:	1885883a 	add	r2,r3,r2
   83be4:	10000005 	stb	zero,0(r2)
                
                if(strcmp(pFilename,szWaveFilename) == 0)
   83be8:	e0bfbe04 	addi	r2,fp,-264
   83bec:	e13fff17 	ldw	r4,-4(fp)
   83bf0:	100b883a 	mov	r5,r2
   83bf4:	008dcc40 	call	8dcc4 <strcmp>
   83bf8:	1000021e 	bne	r2,zero,83c04 <Fat_FileOpen+0x14c>
                    bFind = TRUE;
   83bfc:	00800044 	movi	r2,1
   83c00:	e0bf6d15 	stw	r2,-588(fp)
   83c04:	00000706 	br	83c24 <Fat_FileOpen+0x16c>
            }else{
                if (strcmpi(FileContext.szName, pFilename) == 0)
   83c08:	e0bf7404 	addi	r2,fp,-560
   83c0c:	1009883a 	mov	r4,r2
   83c10:	e17fff17 	ldw	r5,-4(fp)
   83c14:	008dc540 	call	8dc54 <strcasecmp>
   83c18:	1000021e 	bne	r2,zero,83c24 <Fat_FileOpen+0x16c>
                    bFind = TRUE;
   83c1c:	00800044 	movi	r2,1
   83c20:	e0bf6d15 	stw	r2,-588(fp)
    FAT_FILE_INFO *pFile = 0;
    int nPos = 0;
    char szWaveFilename[MAX_FILENAME_LENGTH];
    
    if (Fat_FileBrowseBegin(Fat, &hBrowse)){
